ccopy_reg
_reconstructor
p0
(csympy.matrices.dense
MutableDenseMatrix
p1
c__builtin__
object
p2
Ntp3
Rp4
(dp5
S'rows'
p6
I6
sS'_mat'
p7
(lp8
csympy.core.add
Add
p9
(csympy.core.mul
Mul
p10
(csympy.core.numbers
Float
p11
((I0
S'1bf141205bc019L'
p12
I-56
I53
tp13
tp14
Rp15
(dp16
S'_prec'
p17
I53
sbcsympy.functions.elementary.trigonometric
sin
p18
(csympy.core.symbol
Symbol
p19
(S'q1'
p20
tp21
Rp22
(dp23
S'_assumptions'
p24
g0
(csympy.core.assumptions
StdFactKB
p25
c__builtin__
dict
p26
(dp27
S'real'
p28
NsS'irrational'
p29
NsS'antihermitian'
p30
NsS'nonpositive'
p31
NsS'algebraic'
p32
NsS'hermitian'
p33
NsS'infinite'
p34
NsS'integer'
p35
NsS'imaginary'
p36
NsS'odd'
p37
NsS'even'
p38
NsS'commutative'
p39
I01
sS'zero'
p40
NsS'positive'
p41
NsS'negative'
p42
NsS'nonnegative'
p43
NsS'complex'
p44
NsS'rational'
p45
NsS'finite'
p46
Nstp47
Rp48
(dp49
S'_generator'
p50
(dp51
sbsbtp52
Rp53
(dp54
btp55
Rp56
(dp57
bg10
(g11
((I0
S'ab50b0f27bb3L'
p58
I-50
I48
tp59
tp60
Rp61
(dp62
g17
I53
sbcsympy.functions.elementary.trigonometric
cos
p63
(g19
(S'q5'
p64
tp65
Rp66
(dp67
g24
g0
(g25
g26
(dp68
g28
NsS'polar'
p69
Nsg29
Nsg30
Nsg31
Nsg32
Nsg40
Nsg34
Nsg35
Nsg33
Nsg37
Nsg36
Nsg38
Nsg39
I01
sg41
Nsg42
Nsg43
Nsg44
Nsg45
Nsg46
Nstp70
Rp71
(dp72
g50
(dp73
sbsbtp74
Rp75
(dp76
bg53
tp77
Rp78
(dp79
bg10
(g11
((I0
S'183afb7e90ff97L'
p80
I-56
I53
tp81
tp82
Rp83
(dp84
g17
I53
sbg63
(g22
tp85
Rp86
(dp87
bg18
(g9
(g19
(S'q2'
p88
tp89
Rp90
(dp91
g24
g0
(g25
g26
(dp92
g28
Nsg69
Nsg29
Nsg30
Nsg31
Nsg32
Nsg33
Nsg34
Nsg35
Nsg36
Nsg37
Nsg38
Nsg39
I01
sg40
Nsg41
Nsg42
Nsg43
Nsg44
Nsg45
Nsg46
Nstp93
Rp94
(dp95
g50
(dp96
sbsbg19
(S'q3'
p97
tp98
Rp99
(dp100
g24
g0
(g25
g26
(dp101
g28
Nsg69
Nsg29
Nsg30
Nsg31
Nsg32
Nsg33
Nsg34
Nsg35
Nsg36
Nsg37
Nsg38
Nsg39
I01
sg40
Nsg41
Nsg42
Nsg43
Nsg44
Nsg45
Nsg46
Nstp102
Rp103
(dp104
g50
(dp105
sbsbg19
(S'q4'
p106
tp107
Rp108
(dp109
g24
g0
(g25
g26
(dp110
g28
Nsg69
Nsg29
Nsg30
Nsg31
Nsg32
Nsg33
Nsg34
Nsg35
Nsg36
Nsg37
Nsg38
Nsg39
I01
sg40
Nsg41
Nsg42
Nsg43
Nsg44
Nsg45
Nsg46
Nstp111
Rp112
(dp113
g50
(dp114
sbsbtp115
Rp116
(dp117
btp118
Rp119
(dp120
btp121
Rp122
(dp123
bg10
(g11
((I1
S'191a9fbe76c8b3L'
p124
I-54
I53
tp125
tp126
Rp127
(dp128
g17
I53
sbg86
g63
(g9
(g90
g99
tp129
Rp130
(dp131
btp132
Rp133
(dp134
btp135
Rp136
(dp137
bg10
(g11
((I1
S'1b333333333333L'
p138
I-54
I53
tp139
tp140
Rp141
(dp142
g17
I53
sbg86
g63
(g90
tp143
Rp144
(dp145
btp146
Rp147
(dp148
bg10
(g11
((I1
S'ab50b0f27bb3L'
p149
I-50
I48
tp150
tp151
Rp152
(dp153
g17
I53
sbg86
g63
(g116
tp154
Rp155
(dp156
bg18
(g66
tp157
Rp158
(dp159
btp160
Rp161
(dp162
btp163
Rp164
(dp165
bag9
(g10
(g11
((I1
S'1bf141205bc019L'
p166
I-56
I53
tp167
tp168
Rp169
(dp170
g17
I53
sbg86
tp171
Rp172
(dp173
bg10
(g11
((I0
S'183afb7e90ff97L'
p174
I-56
I53
tp175
tp176
Rp177
(dp178
g17
I53
sbg53
g119
tp179
Rp180
(dp181
bg10
(g11
((I1
S'ab50b0f27bb3L'
p182
I-50
I48
tp183
tp184
Rp185
(dp186
g17
I53
sbg86
g75
tp187
Rp188
(dp189
bg10
(g11
((I1
S'191a9fbe76c8b3L'
p190
I-54
I53
tp191
tp192
Rp193
(dp194
g17
I53
sbg133
g53
tp195
Rp196
(dp197
bg10
(g11
((I1
S'1b333333333333L'
p198
I-54
I53
tp199
tp200
Rp201
(dp202
g17
I53
sbg144
g53
tp203
Rp204
(dp205
bg10
(g11
((I1
S'ab50b0f27bb3L'
p206
I-50
I48
tp207
tp208
Rp209
(dp210
g17
I53
sbg155
g53
g158
tp211
Rp212
(dp213
btp214
Rp215
(dp216
bag9
(g11
((I0
S'16d31fcd24e161L'
p217
I-56
I53
tp218
tp219
Rp220
(dp221
g17
I53
sbg10
(g11
((I1
S'183afb7e90ff97L'
p222
I-56
I53
tp223
tp224
Rp225
(dp226
g17
I53
sbg155
tp227
Rp228
(dp229
bg10
(g11
((I1
S'191a9fbe76c8b3L'
p230
I-54
I53
tp231
tp232
Rp233
(dp234
g17
I53
sbg18
(g130
tp235
Rp236
(dp237
btp238
Rp239
(dp240
bg10
(g11
((I1
S'1b333333333333L'
p241
I-54
I53
tp242
tp243
Rp244
(dp245
g17
I53
sbg18
(g90
tp246
Rp247
(dp248
btp249
Rp250
(dp251
bg10
(g11
((I1
S'ab50b0f27bb3L'
p252
I-50
I48
tp253
tp254
Rp255
(dp256
g17
I53
sbg158
g119
tp257
Rp258
(dp259
btp260
Rp261
(dp262
bacsympy.functions.elementary.trigonometric
atan2
p263
(g9
(g10
(csympy.core.numbers
NegativeOne
p264
(I-1
tp265
Rp266
(dp267
bg63
(g19
(S'q6'
p268
tp269
Rp270
(dp271
g24
g0
(g25
g26
(dp272
g28
Nsg29
Nsg30
Nsg31
Nsg32
Nsg40
Nsg34
Nsg35
Nsg33
Nsg37
Nsg36
Nsg38
Nsg39
I01
sg41
Nsg42
Nsg43
Nsg44
Nsg45
Nsg46
Nstp273
Rp274
(dp275
g50
(dp276
sbsbtp277
Rp278
(dp279
bg155
tp280
Rp281
(dp282
bg10
(g75
g18
(g270
tp283
Rp284
(dp285
bg119
tp286
Rp287
(dp288
btp289
Rp290
(dp291
bg9
(g10
(g155
g284
tp292
Rp293
(dp294
bg10
(g75
g278
g119
tp295
Rp296
(dp297
btp298
Rp299
(dp300
btp301
Rp302
(dp303
bag263
(g10
(g158
g119
tp304
Rp305
(dp306
bg10
(csympy.core.numbers
Rational
p307
(I1
I4
tp308
Rp309
(dp310
bcsympy.core.power
Pow
p311
(g9
(csympy.core.numbers
Integer
p312
(I12
tp313
Rp314
(dp315
bg10
(g312
(I-2
tp316
Rp317
(dp318
bg63
(g9
(g10
(g317
g66
tp319
Rp320
(dp321
bg10
(g312
(I2
tp322
Rp323
(dp324
bg90
tp325
Rp326
(dp327
bg10
(g323
g99
tp328
Rp329
(dp330
bg10
(g323
g108
tp331
Rp332
(dp333
btp334
Rp335
(dp336
btp337
Rp338
(dp339
btp340
Rp341
(dp342
bg10
(g317
g63
(g9
(g326
g329
g332
g10
(g323
g66
tp343
Rp344
(dp345
btp346
Rp347
(dp348
btp349
Rp350
(dp351
btp352
Rp353
(dp354
bg10
(g312
(I4
tp355
Rp356
(dp357
bg63
(g344
tp358
Rp359
(dp360
btp361
Rp362
(dp363
bg10
(g356
g63
(g9
(g326
g329
g332
tp364
Rp365
(dp366
btp367
Rp368
(dp369
btp370
Rp371
(dp372
btp373
Rp374
(dp375
bcsympy.core.numbers
Half
p376
(I1
I2
tp377
Rp378
(dp379
btp380
Rp381
(dp382
btp383
Rp384
(dp385
btp386
Rp387
(dp388
bag263
(g9
(g10
(g266
g86
g75
tp389
Rp390
(dp391
bg10
(g266
g155
g53
g158
tp392
Rp393
(dp394
btp395
Rp396
(dp397
bg9
(g10
(g75
g53
tp398
Rp399
(dp400
bg10
(g266
g86
g155
g158
tp401
Rp402
(dp403
btp404
Rp405
(dp406
btp407
Rp408
(dp409
basS'cols'
p410
I1
sb.