ccopy_reg
_reconstructor
p0
(csympy.matrices.dense
MutableDenseMatrix
p1
c__builtin__
object
p2
Ntp3
Rp4
(dp5
S'rows'
p6
I6
sS'_mat'
p7
(lp8
csympy.core.add
Add
p9
(csympy.core.mul
Mul
p10
(csympy.core.numbers
Float
p11
((I0
S'b333333333333L'
p12
I-53
I52
tp13
tp14
Rp15
(dp16
S'_prec'
p17
I53
sbcsympy.functions.elementary.trigonometric
cos
p18
(csympy.core.symbol
Symbol
p19
(S'q1'
p20
tp21
Rp22
(dp23
S'_assumptions'
p24
g0
(csympy.core.assumptions
StdFactKB
p25
c__builtin__
dict
p26
(dp27
S'real'
p28
NsS'irrational'
p29
NsS'antihermitian'
p30
NsS'nonpositive'
p31
NsS'algebraic'
p32
NsS'zero'
p33
NsS'infinite'
p34
NsS'integer'
p35
NsS'hermitian'
p36
NsS'odd'
p37
NsS'imaginary'
p38
NsS'even'
p39
NsS'commutative'
p40
I01
sS'positive'
p41
NsS'negative'
p42
NsS'nonnegative'
p43
NsS'complex'
p44
NsS'rational'
p45
NsS'finite'
p46
Nstp47
Rp48
(dp49
S'_generator'
p50
(dp51
sbsbtp52
Rp53
(dp54
btp55
Rp56
(dp57
bg10
(g11
((I0
S'5L'
p58
I-2
I3
tp59
tp60
Rp61
(dp62
g17
I53
sbg53
csympy.functions.elementary.trigonometric
sin
p63
(g19
(S'q2'
p64
tp65
Rp66
(dp67
g24
g0
(g25
g26
(dp68
g28
NsS'polar'
p69
Nsg29
Nsg30
Nsg31
Nsg32
Nsg36
Nsg34
Nsg35
Nsg38
Nsg37
Nsg39
Nsg40
I01
sg33
Nsg41
Nsg42
Nsg43
Nsg44
Nsg45
Nsg46
Nstp70
Rp71
(dp72
g50
(dp73
sbsbtp74
Rp75
(dp76
btp77
Rp78
(dp79
bg10
(g11
((I0
S'13645a1cac0831L'
p80
I-54
I53
tp81
tp82
Rp83
(dp84
g17
I53
sbg9
(g10
(g53
g18
(g66
tp85
Rp86
(dp87
bg18
(g19
(S'q3'
p88
tp89
Rp90
(dp91
g24
g0
(g25
g26
(dp92
g28
Nsg69
Nsg29
Nsg30
Nsg31
Nsg32
Nsg36
Nsg34
Nsg35
Nsg38
Nsg37
Nsg39
Nsg40
I01
sg33
Nsg41
Nsg42
Nsg43
Nsg44
Nsg45
Nsg46
Nstp93
Rp94
(dp95
g50
(dp96
sbsbtp97
Rp98
(dp99
btp100
Rp101
(dp102
bg10
(csympy.core.numbers
NegativeOne
p103
(I-1
tp104
Rp105
(dp106
bg53
g75
g63
(g90
tp107
Rp108
(dp109
btp110
Rp111
(dp112
btp113
Rp114
(dp115
bg18
(g19
(S'q5'
p116
tp117
Rp118
(dp119
g24
g0
(g25
g26
(dp120
g28
Nsg69
Nsg29
Nsg30
Nsg31
Nsg32
Nsg36
Nsg34
Nsg35
Nsg38
Nsg37
Nsg39
Nsg40
I01
sg33
Nsg41
Nsg42
Nsg43
Nsg44
Nsg45
Nsg46
Nstp121
Rp122
(dp123
g50
(dp124
sbsbtp125
Rp126
(dp127
btp128
Rp129
(dp130
bg10
(g11
((I1
S'13645a1cac0831L'
p131
I-54
I53
tp132
tp133
Rp134
(dp135
g17
I53
sbg9
(g10
(g9
(g10
(g53
g86
g108
tp136
Rp137
(dp138
bg10
(g53
g98
g75
tp139
Rp140
(dp141
btp142
Rp143
(dp144
bg18
(g19
(S'q4'
p145
tp146
Rp147
(dp148
g24
g0
(g25
g26
(dp149
g28
Nsg69
Nsg29
Nsg30
Nsg31
Nsg32
Nsg36
Nsg34
Nsg35
Nsg38
Nsg37
Nsg39
Nsg40
I01
sg33
Nsg41
Nsg42
Nsg43
Nsg44
Nsg45
Nsg46
Nstp150
Rp151
(dp152
g50
(dp153
sbsbtp154
Rp155
(dp156
btp157
Rp158
(dp159
bg10
(g63
(g22
tp160
Rp161
(dp162
bg63
(g147
tp163
Rp164
(dp165
btp166
Rp167
(dp168
btp169
Rp170
(dp171
bg63
(g118
tp172
Rp173
(dp174
btp175
Rp176
(dp177
bg10
(g11
((I0
S'1805bc01a36e2fL'
p178
I-52
I53
tp179
tp180
Rp181
(dp182
g17
I53
sbg53
g86
g98
tp183
Rp184
(dp185
bg10
(g11
((I0
S'1b71758e219653L'
p186
I-57
I53
tp187
tp188
Rp189
(dp190
g17
I53
sbg53
g86
g108
tp191
Rp192
(dp193
bg10
(g11
((I0
S'1b71758e219653L'
p194
I-57
I53
tp195
tp196
Rp197
(dp198
g17
I53
sbg53
g98
g75
tp199
Rp200
(dp201
bg10
(g11
((I1
S'1805bc01a36e2fL'
p202
I-52
I53
tp203
tp204
Rp205
(dp206
g17
I53
sbg53
g75
g108
tp207
Rp208
(dp209
btp210
Rp211
(dp212
bag9
(g10
(g11
((I0
S'b333333333333L'
p213
I-53
I52
tp214
tp215
Rp216
(dp217
g17
I53
sbg161
tp218
Rp219
(dp220
bg10
(g11
((I0
S'5L'
p221
I-2
I3
tp222
tp223
Rp224
(dp225
g17
I53
sbg161
g75
tp226
Rp227
(dp228
bg10
(g11
((I0
S'13645a1cac0831L'
p229
I-54
I53
tp230
tp231
Rp232
(dp233
g17
I53
sbg9
(g10
(g86
g98
g161
tp234
Rp235
(dp236
bg10
(g105
g161
g75
g108
tp237
Rp238
(dp239
btp240
Rp241
(dp242
bg126
tp243
Rp244
(dp245
bg10
(g11
((I1
S'13645a1cac0831L'
p246
I-54
I53
tp247
tp248
Rp249
(dp250
g17
I53
sbg9
(g10
(g9
(g10
(g86
g161
g108
tp251
Rp252
(dp253
bg10
(g98
g161
g75
tp254
Rp255
(dp256
btp257
Rp258
(dp259
bg155
tp260
Rp261
(dp262
bg10
(g105
g53
g164
tp263
Rp264
(dp265
btp266
Rp267
(dp268
bg173
tp269
Rp270
(dp271
bg10
(g11
((I0
S'1805bc01a36e2fL'
p272
I-52
I53
tp273
tp274
Rp275
(dp276
g17
I53
sbg86
g98
g161
tp277
Rp278
(dp279
bg10
(g11
((I0
S'1b71758e219653L'
p280
I-57
I53
tp281
tp282
Rp283
(dp284
g17
I53
sbg86
g161
g108
tp285
Rp286
(dp287
bg10
(g11
((I0
S'1b71758e219653L'
p288
I-57
I53
tp289
tp290
Rp291
(dp292
g17
I53
sbg98
g161
g75
tp293
Rp294
(dp295
bg10
(g11
((I1
S'1805bc01a36e2fL'
p296
I-52
I53
tp297
tp298
Rp299
(dp300
g17
I53
sbg161
g75
g108
tp301
Rp302
(dp303
btp304
Rp305
(dp306
bag9
(g11
((I0
S'3L'
p307
I-2
I2
tp308
tp309
Rp310
(dp311
g17
I53
sbg10
(g11
((I0
S'5L'
p312
I-2
I3
tp313
tp314
Rp315
(dp316
g17
I53
sbg86
tp317
Rp318
(dp319
bg10
(g11
((I0
S'13645a1cac0831L'
p320
I-54
I53
tp321
tp322
Rp323
(dp324
g17
I53
sbg9
(g10
(g105
g86
g108
tp325
Rp326
(dp327
bg10
(g105
g98
g75
tp328
Rp329
(dp330
btp331
Rp332
(dp333
bg126
tp334
Rp335
(dp336
bg10
(g11
((I0
S'1b71758e219653L'
p337
I-57
I53
tp338
tp339
Rp340
(dp341
g17
I53
sbg86
g98
tp342
Rp343
(dp344
bg10
(g11
((I1
S'1805bc01a36e2fL'
p345
I-52
I53
tp346
tp347
Rp348
(dp349
g17
I53
sbg86
g108
tp350
Rp351
(dp352
bg10
(g11
((I1
S'1805bc01a36e2fL'
p353
I-52
I53
tp354
tp355
Rp356
(dp357
g17
I53
sbg98
g75
tp358
Rp359
(dp360
bg10
(g11
((I1
S'1b71758e219653L'
p361
I-57
I53
tp362
tp363
Rp364
(dp365
g17
I53
sbg75
g108
tp366
Rp367
(dp368
bg10
(g11
((I1
S'13645a1cac0831L'
p369
I-54
I53
tp370
tp371
Rp372
(dp373
g17
I53
sbg9
(g10
(g86
g98
tp374
Rp375
(dp376
bg10
(g105
g75
g108
tp377
Rp378
(dp379
btp380
Rp381
(dp382
bg155
g173
tp383
Rp384
(dp385
btp386
Rp387
(dp388
bacsympy.functions.elementary.trigonometric
atan2
p389
(g9
(g10
(g9
(g10
(g332
g173
tp390
Rp391
(dp392
bg10
(g381
g155
g126
tp393
Rp394
(dp395
btp396
Rp397
(dp398
bg63
(g19
(S'q6'
p399
tp400
Rp401
(dp402
g24
g0
(g25
g26
(dp403
g28
Nsg29
Nsg30
Nsg31
Nsg32
Nsg33
Nsg34
Nsg35
Nsg36
Nsg37
Nsg38
Nsg39
Nsg40
I01
sg41
Nsg42
Nsg43
Nsg44
Nsg45
Nsg46
Nstp404
Rp405
(dp406
g50
(dp407
sbsbtp408
Rp409
(dp410
btp411
Rp412
(dp413
bg10
(g381
g18
(g401
tp414
Rp415
(dp416
bg164
tp417
Rp418
(dp419
btp420
Rp421
(dp422
bg9
(g10
(g397
g415
tp423
Rp424
(dp425
bg10
(g105
g381
g164
g409
tp426
Rp427
(dp428
btp429
Rp430
(dp431
btp432
Rp433
(dp434
bag389
(g9
(g10
(g105
g332
g126
tp435
Rp436
(dp437
bg10
(g381
g155
g173
tp438
Rp439
(dp440
btp441
Rp442
(dp443
bcsympy.core.power
Pow
p444
(g9
(g444
(g9
(g10
(g114
g126
tp445
Rp446
(dp447
bg10
(g105
g170
g173
tp448
Rp449
(dp450
btp451
Rp452
(dp453
bcsympy.core.numbers
Integer
p454
(I2
tp455
Rp456
(dp457
btp458
Rp459
(dp460
bg444
(g9
(g10
(g241
g126
tp461
Rp462
(dp463
bg10
(g105
g267
g173
tp464
Rp465
(dp466
btp467
Rp468
(dp469
bg456
tp470
Rp471
(dp472
btp473
Rp474
(dp475
bcsympy.core.numbers
Half
p476
(I1
I2
tp477
Rp478
(dp479
btp480
Rp481
(dp482
btp483
Rp484
(dp485
bag389
(g468
g452
tp486
Rp487
(dp488
basS'cols'
p489
I1
sb.