ccopy_reg
_reconstructor
p0
(csympy.matrices.dense
MutableDenseMatrix
p1
c__builtin__
object
p2
Ntp3
Rp4
(dp5
S'rows'
p6
I7
sS'_mat'
p7
(lp8
csympy.core.add
Add
p9
(csympy.core.mul
Mul
p10
(csympy.core.numbers
Float
p11
((I0
S'b333333333333L'
p12
I-53
I52
tp13
tp14
Rp15
(dp16
S'_prec'
p17
I53
sbcsympy.functions.elementary.trigonometric
cos
p18
(csympy.core.symbol
Symbol
p19
(S'q1'
p20
tp21
Rp22
(dp23
S'_assumptions'
p24
g0
(csympy.core.assumptions
StdFactKB
p25
c__builtin__
dict
p26
(dp27
S'real'
p28
NsS'irrational'
p29
NsS'antihermitian'
p30
NsS'nonpositive'
p31
NsS'negative'
p32
NsS'algebraic'
p33
NsS'hermitian'
p34
NsS'infinite'
p35
NsS'integer'
p36
NsS'imaginary'
p37
NsS'odd'
p38
NsS'even'
p39
NsS'commutative'
p40
I01
sS'positive'
p41
NsS'zero'
p42
NsS'nonnegative'
p43
NsS'complex'
p44
NsS'rational'
p45
NsS'finite'
p46
Nstp47
Rp48
(dp49
S'_generator'
p50
(dp51
sbsbtp52
Rp53
(dp54
btp55
Rp56
(dp57
bg10
(g11
((I0
S'5L'
p58
I-2
I3
tp59
tp60
Rp61
(dp62
g17
I53
sbg53
csympy.functions.elementary.trigonometric
sin
p63
(g19
(S'q2'
p64
tp65
Rp66
(dp67
g24
g0
(g25
g26
(dp68
g28
NsS'polar'
p69
Nsg29
Nsg30
Nsg31
Nsg32
Nsg33
Nsg34
Nsg35
Nsg36
Nsg37
Nsg38
Nsg39
Nsg40
I01
sg41
Nsg42
Nsg43
Nsg44
Nsg45
Nsg46
Nstp70
Rp71
(dp72
g50
(dp73
sbsbtp74
Rp75
(dp76
btp77
Rp78
(dp79
bg10
(g11
((I0
S'db8bac710cb29L'
p80
I-56
I52
tp81
tp82
Rp83
(dp84
g17
I53
sbg53
g63
(g9
(g66
g19
(S'q3'
p85
tp86
Rp87
(dp88
g24
g0
(g25
g26
(dp89
g28
Nsg69
Nsg29
Nsg30
Nsg31
Nsg32
Nsg33
Nsg34
Nsg35
Nsg36
Nsg37
Nsg38
Nsg39
Nsg40
I01
sg41
Nsg42
Nsg43
Nsg44
Nsg45
Nsg46
Nstp90
Rp91
(dp92
g50
(dp93
sbsbtp94
Rp95
(dp96
btp97
Rp98
(dp99
btp100
Rp101
(dp102
bg10
(g11
((I0
S'1805bc01a36e2fL'
p103
I-52
I53
tp104
tp105
Rp106
(dp107
g17
I53
sbg53
g18
(g95
tp108
Rp109
(dp110
btp111
Rp112
(dp113
bg10
(g11
((I0
S'13645a1cac0831L'
p114
I-54
I53
tp115
tp116
Rp117
(dp118
g17
I53
sbg53
g18
(g19
(S'q5'
p119
tp120
Rp121
(dp122
g24
g0
(g25
g26
(dp123
g28
Nsg69
Nsg29
Nsg30
Nsg31
Nsg32
Nsg33
Nsg34
Nsg35
Nsg36
Nsg37
Nsg38
Nsg39
Nsg40
I01
sg41
Nsg42
Nsg43
Nsg44
Nsg45
Nsg46
Nstp124
Rp125
(dp126
g50
(dp127
sbsbtp128
Rp129
(dp130
bg109
tp131
Rp132
(dp133
bg10
(g11
((I1
S'13645a1cac0831L'
p134
I-54
I53
tp135
tp136
Rp137
(dp138
g17
I53
sbg63
(g22
tp139
Rp140
(dp141
bg63
(g19
(S'q4'
p142
tp143
Rp144
(dp145
g24
g0
(g25
g26
(dp146
g28
Nsg69
Nsg29
Nsg30
Nsg31
Nsg32
Nsg33
Nsg34
Nsg35
Nsg36
Nsg37
Nsg38
Nsg39
Nsg40
I01
sg41
Nsg42
Nsg43
Nsg44
Nsg45
Nsg46
Nstp147
Rp148
(dp149
g50
(dp150
sbsbtp151
Rp152
(dp153
bg63
(g121
tp154
Rp155
(dp156
btp157
Rp158
(dp159
bg10
(g11
((I1
S'13645a1cac0831L'
p160
I-54
I53
tp161
tp162
Rp163
(dp164
g17
I53
sbg53
g18
(g144
tp165
Rp166
(dp167
bg155
g98
tp168
Rp169
(dp170
btp171
Rp172
(dp173
bag9
(g10
(g11
((I0
S'b333333333333L'
p174
I-53
I52
tp175
tp176
Rp177
(dp178
g17
I53
sbg140
tp179
Rp180
(dp181
bg10
(g11
((I0
S'5L'
p182
I-2
I3
tp183
tp184
Rp185
(dp186
g17
I53
sbg140
g75
tp187
Rp188
(dp189
bg10
(g11
((I0
S'db8bac710cb29L'
p190
I-56
I52
tp191
tp192
Rp193
(dp194
g17
I53
sbg140
g98
tp195
Rp196
(dp197
bg10
(g11
((I0
S'1805bc01a36e2fL'
p198
I-52
I53
tp199
tp200
Rp201
(dp202
g17
I53
sbg109
g140
tp203
Rp204
(dp205
bg10
(g11
((I0
S'13645a1cac0831L'
p206
I-54
I53
tp207
tp208
Rp209
(dp210
g17
I53
sbg53
g152
g155
tp211
Rp212
(dp213
bg10
(g11
((I0
S'13645a1cac0831L'
p214
I-54
I53
tp215
tp216
Rp217
(dp218
g17
I53
sbg129
g109
g140
tp219
Rp220
(dp221
bg10
(g11
((I1
S'13645a1cac0831L'
p222
I-54
I53
tp223
tp224
Rp225
(dp226
g17
I53
sbg166
g140
g155
g98
tp227
Rp228
(dp229
btp230
Rp231
(dp232
bag9
(g11
((I0
S'3L'
p233
I-2
I2
tp234
tp235
Rp236
(dp237
g17
I53
sbg10
(g11
((I0
S'5L'
p238
I-2
I3
tp239
tp240
Rp241
(dp242
g17
I53
sbg18
(g66
tp243
Rp244
(dp245
btp246
Rp247
(dp248
bg10
(g11
((I0
S'db8bac710cb29L'
p249
I-56
I52
tp250
tp251
Rp252
(dp253
g17
I53
sbg109
tp254
Rp255
(dp256
bg10
(g11
((I1
S'1805bc01a36e2fL'
p257
I-52
I53
tp258
tp259
Rp260
(dp261
g17
I53
sbg98
tp262
Rp263
(dp264
bg10
(g11
((I1
S'13645a1cac0831L'
p265
I-54
I53
tp266
tp267
Rp268
(dp269
g17
I53
sbg129
g98
tp270
Rp271
(dp272
bg10
(g11
((I1
S'13645a1cac0831L'
p273
I-54
I53
tp274
tp275
Rp276
(dp277
g17
I53
sbg166
g109
g155
tp278
Rp279
(dp280
btp281
Rp282
(dp283
bag10
(g11
((I0
S'1L'
p284
I-1
I1
tp285
tp286
Rp287
(dp288
g17
I53
sbcsympy.core.power
Pow
p289
(g9
(csympy.core.numbers
One
p290
(I1
tp291
Rp292
(dp293
bg10
(g9
(g10
(g9
(g10
(csympy.core.numbers
NegativeOne
p294
(I-1
tp295
Rp296
(dp297
bg53
g152
tp298
Rp299
(dp300
bg10
(g166
g140
g98
tp301
Rp302
(dp303
btp304
Rp305
(dp306
bg129
tp307
Rp308
(dp309
bg10
(g109
g140
g155
tp310
Rp311
(dp312
btp313
Rp314
(dp315
bg63
(g19
(S'q6'
p316
tp317
Rp318
(dp319
g24
g0
(g25
g26
(dp320
S'real'
p321
NsS'irrational'
p322
NsS'antihermitian'
p323
NsS'nonpositive'
p324
NsS'negative'
p325
NsS'algebraic'
p326
NsS'hermitian'
p327
NsS'infinite'
p328
NsS'integer'
p329
NsS'imaginary'
p330
NsS'odd'
p331
NsS'even'
p332
NsS'commutative'
p333
I01
sS'positive'
p334
NsS'zero'
p335
NsS'nonnegative'
p336
NsS'complex'
p337
NsS'rational'
p338
NsS'finite'
p339
Nstp340
Rp341
(dp342
g50
(dp343
sbsbtp344
Rp345
(dp346
btp347
Rp348
(dp349
bg10
(g9
(g10
(g53
g166
tp350
Rp351
(dp352
bg10
(g140
g152
g98
tp353
Rp354
(dp355
btp356
Rp357
(dp358
bg18
(g318
tp359
Rp360
(dp361
btp362
Rp363
(dp364
bg10
(g296
g9
(g10
(g140
g152
tp365
Rp366
(dp367
bg10
(g53
g166
g98
tp368
Rp369
(dp370
btp371
Rp372
(dp373
bg155
tp374
Rp375
(dp376
bg10
(g296
g9
(g10
(g155
g98
tp377
Rp378
(dp379
bg10
(g296
g166
g129
g109
tp380
Rp381
(dp382
btp383
Rp384
(dp385
bg360
tp386
Rp387
(dp388
bg10
(g53
g129
g109
tp389
Rp390
(dp391
bg10
(g296
g109
g152
g345
tp392
Rp393
(dp394
btp395
Rp396
(dp397
bcsympy.core.numbers
Half
p398
(I1
I2
tp399
Rp400
(dp401
btp402
Rp403
(dp404
btp405
Rp406
(dp407
bag10
(g11
((I0
S'1L'
p408
I-1
I1
tp409
tp410
Rp411
(dp412
g17
I53
sbg289
(g9
(g292
g10
(g296
g9
(g10
(g9
(g10
(g296
g53
g152
tp413
Rp414
(dp415
bg10
(g166
g140
g98
tp416
Rp417
(dp418
btp419
Rp420
(dp421
bg129
tp422
Rp423
(dp424
bg10
(g109
g140
g155
tp425
Rp426
(dp427
btp428
Rp429
(dp430
bg345
tp431
Rp432
(dp433
bg10
(g296
g9
(g10
(g53
g166
tp434
Rp435
(dp436
bg10
(g140
g152
g98
tp437
Rp438
(dp439
btp440
Rp441
(dp442
bg360
tp443
Rp444
(dp445
bg10
(g296
g9
(g10
(g140
g152
tp446
Rp447
(dp448
bg10
(g53
g166
g98
tp449
Rp450
(dp451
btp452
Rp453
(dp454
bg155
tp455
Rp456
(dp457
bg10
(g296
g9
(g10
(g296
g155
g98
tp458
Rp459
(dp460
bg10
(g166
g129
g109
tp461
Rp462
(dp463
btp464
Rp465
(dp466
bg360
tp467
Rp468
(dp469
bg10
(g53
g129
g109
tp470
Rp471
(dp472
bg10
(g109
g152
g345
tp473
Rp474
(dp475
btp476
Rp477
(dp478
bg400
tp479
Rp480
(dp481
bcsympy.functions.elementary.complexes
sign
p482
(g9
(g10
(g9
(g10
(g53
g166
tp483
Rp484
(dp485
bg10
(g140
g152
g98
tp486
Rp487
(dp488
btp489
Rp490
(dp491
bg345
tp492
Rp493
(dp494
bg10
(g296
g9
(g10
(g420
g129
tp495
Rp496
(dp497
bg10
(g109
g140
g155
tp498
Rp499
(dp500
btp501
Rp502
(dp503
bg360
tp504
Rp505
(dp506
bg10
(g296
g9
(g10
(g155
g98
tp507
Rp508
(dp509
bg10
(g296
g166
g129
g109
tp510
Rp511
(dp512
btp513
Rp514
(dp515
bg345
tp516
Rp517
(dp518
bg10
(g360
g109
g152
tp519
Rp520
(dp521
btp522
Rp523
(dp524
btp525
Rp526
(dp527
btp528
Rp529
(dp530
bag10
(g11
((I0
S'1L'
p531
I-1
I1
tp532
tp533
Rp534
(dp535
g17
I53
sbg289
(g9
(g292
g10
(g9
(g10
(g9
(g10
(g296
g53
g152
tp536
Rp537
(dp538
bg10
(g166
g140
g98
tp539
Rp540
(dp541
btp542
Rp543
(dp544
bg129
tp545
Rp546
(dp547
bg10
(g109
g140
g155
tp548
Rp549
(dp550
btp551
Rp552
(dp553
bg345
tp554
Rp555
(dp556
bg10
(g9
(g10
(g53
g166
tp557
Rp558
(dp559
bg10
(g140
g152
g98
tp560
Rp561
(dp562
btp563
Rp564
(dp565
bg360
tp566
Rp567
(dp568
bg10
(g9
(g10
(g140
g152
tp569
Rp570
(dp571
bg10
(g53
g166
g98
tp572
Rp573
(dp574
btp575
Rp576
(dp577
bg155
tp578
Rp579
(dp580
bg10
(g9
(g10
(g155
g98
tp581
Rp582
(dp583
bg10
(g296
g166
g129
g109
tp584
Rp585
(dp586
btp587
Rp588
(dp589
bg360
tp590
Rp591
(dp592
bg10
(g109
g152
g345
tp593
Rp594
(dp595
bg10
(g296
g53
g129
g109
tp596
Rp597
(dp598
btp599
Rp600
(dp601
bg400
tp602
Rp603
(dp604
bg482
(g9
(g10
(g9
(g10
(g9
(g10
(g140
g152
tp605
Rp606
(dp607
bg10
(g53
g166
g98
tp608
Rp609
(dp610
btp611
Rp612
(dp613
bg129
tp614
Rp615
(dp616
bg10
(g53
g109
g155
tp617
Rp618
(dp619
btp620
Rp621
(dp622
bg360
tp623
Rp624
(dp625
bg10
(g129
g98
tp626
Rp627
(dp628
bg10
(g296
g9
(g10
(g296
g166
g140
tp629
Rp630
(dp631
bg10
(g53
g152
g98
tp632
Rp633
(dp634
btp635
Rp636
(dp637
bg345
tp638
Rp639
(dp640
bg10
(g166
g109
g155
tp641
Rp642
(dp643
btp644
Rp645
(dp646
btp647
Rp648
(dp649
btp650
Rp651
(dp652
bag10
(g11
((I1
S'1L'
p653
I-1
I1
tp654
tp655
Rp656
(dp657
g17
I53
sbg289
(g9
(g292
g10
(g9
(g10
(g140
g152
tp658
Rp659
(dp660
bg10
(g53
g166
g98
tp661
Rp662
(dp663
btp664
Rp665
(dp666
bg155
tp667
Rp668
(dp669
bg10
(g9
(g10
(g296
g155
g98
tp670
Rp671
(dp672
bg10
(g166
g129
g109
tp673
Rp674
(dp675
btp676
Rp677
(dp678
bg360
tp679
Rp680
(dp681
bg10
(g296
g9
(g10
(g9
(g10
(g296
g53
g152
tp682
Rp683
(dp684
bg10
(g166
g140
g98
tp685
Rp686
(dp687
btp688
Rp689
(dp690
bg129
tp691
Rp692
(dp693
bg10
(g109
g140
g155
tp694
Rp695
(dp696
btp697
Rp698
(dp699
bg345
tp700
Rp701
(dp702
bg10
(g296
g9
(g10
(g53
g166
tp703
Rp704
(dp705
bg10
(g140
g152
g98
tp706
Rp707
(dp708
btp709
Rp710
(dp711
bg360
tp712
Rp713
(dp714
bg10
(g296
g53
g129
g109
tp715
Rp716
(dp717
bg10
(g296
g109
g152
g345
tp718
Rp719
(dp720
btp721
Rp722
(dp723
bg400
tp724
Rp725
(dp726
bg482
(g9
(g10
(g9
(g10
(g9
(g10
(g140
g152
tp727
Rp728
(dp729
bg10
(g53
g166
g98
tp730
Rp731
(dp732
btp733
Rp734
(dp735
bg129
tp736
Rp737
(dp738
bg10
(g53
g109
g155
tp739
Rp740
(dp741
btp742
Rp743
(dp744
bg345
tp745
Rp746
(dp747
bg10
(g9
(g10
(g296
g53
g152
tp748
Rp749
(dp750
bg10
(g166
g140
g98
tp751
Rp752
(dp753
btp754
Rp755
(dp756
bg155
tp757
Rp758
(dp759
bg10
(g296
g9
(g10
(g166
g140
tp760
Rp761
(dp762
bg10
(g296
g53
g152
g98
tp763
Rp764
(dp765
btp766
Rp767
(dp768
bg360
tp769
Rp770
(dp771
bg10
(g296
g129
g109
g140
tp772
Rp773
(dp774
btp775
Rp776
(dp777
btp778
Rp779
(dp780
btp781
Rp782
(dp783
basS'cols'
p784
I1
sb.