ccopy_reg
_reconstructor
p0
(csympy.matrices.dense
MutableDenseMatrix
p1
c__builtin__
object
p2
Ntp3
Rp4
(dp5
S'rows'
p6
I7
sS'_mat'
p7
(lp8
csympy.core.add
Add
p9
(csympy.core.mul
Mul
p10
(csympy.core.numbers
Float
p11
((I0
S'1bf141205bc019L'
p12
I-56
I53
tp13
tp14
Rp15
(dp16
S'_prec'
p17
I53
sbcsympy.functions.elementary.trigonometric
sin
p18
(csympy.core.symbol
Symbol
p19
(S'q1'
p20
tp21
Rp22
(dp23
S'_assumptions'
p24
g0
(csympy.core.assumptions
StdFactKB
p25
c__builtin__
dict
p26
(dp27
S'real'
p28
NsS'irrational'
p29
NsS'antihermitian'
p30
NsS'nonpositive'
p31
NsS'algebraic'
p32
NsS'hermitian'
p33
NsS'infinite'
p34
NsS'integer'
p35
NsS'imaginary'
p36
NsS'odd'
p37
NsS'even'
p38
NsS'commutative'
p39
I01
sS'zero'
p40
NsS'positive'
p41
NsS'negative'
p42
NsS'nonnegative'
p43
NsS'complex'
p44
NsS'rational'
p45
NsS'finite'
p46
Nstp47
Rp48
(dp49
S'_generator'
p50
(dp51
sbsbtp52
Rp53
(dp54
btp55
Rp56
(dp57
bg10
(g11
((I0
S'ab50b0f27bb3L'
p58
I-50
I48
tp59
tp60
Rp61
(dp62
g17
I53
sbcsympy.functions.elementary.trigonometric
cos
p63
(g19
(S'q5'
p64
tp65
Rp66
(dp67
g24
g0
(g25
g26
(dp68
g28
NsS'polar'
p69
Nsg29
Nsg30
Nsg31
Nsg32
Nsg40
Nsg34
Nsg35
Nsg33
Nsg37
Nsg36
Nsg38
Nsg39
I01
sg41
Nsg42
Nsg43
Nsg44
Nsg45
Nsg46
Nstp70
Rp71
(dp72
g50
(dp73
sbsbtp74
Rp75
(dp76
bg53
tp77
Rp78
(dp79
bg10
(g11
((I0
S'183afb7e90ff97L'
p80
I-56
I53
tp81
tp82
Rp83
(dp84
g17
I53
sbg63
(g22
tp85
Rp86
(dp87
bg18
(g9
(g19
(S'q2'
p88
tp89
Rp90
(dp91
g24
g0
(g25
g26
(dp92
g28
Nsg69
Nsg29
Nsg30
Nsg31
Nsg32
Nsg33
Nsg34
Nsg35
Nsg36
Nsg37
Nsg38
Nsg39
I01
sg40
Nsg41
Nsg42
Nsg43
Nsg44
Nsg45
Nsg46
Nstp93
Rp94
(dp95
g50
(dp96
sbsbg19
(S'q3'
p97
tp98
Rp99
(dp100
g24
g0
(g25
g26
(dp101
g28
Nsg69
Nsg29
Nsg30
Nsg31
Nsg32
Nsg33
Nsg34
Nsg35
Nsg36
Nsg37
Nsg38
Nsg39
I01
sg40
Nsg41
Nsg42
Nsg43
Nsg44
Nsg45
Nsg46
Nstp102
Rp103
(dp104
g50
(dp105
sbsbg19
(S'q4'
p106
tp107
Rp108
(dp109
g24
g0
(g25
g26
(dp110
g28
Nsg69
Nsg29
Nsg30
Nsg31
Nsg32
Nsg33
Nsg34
Nsg35
Nsg36
Nsg37
Nsg38
Nsg39
I01
sg40
Nsg41
Nsg42
Nsg43
Nsg44
Nsg45
Nsg46
Nstp111
Rp112
(dp113
g50
(dp114
sbsbtp115
Rp116
(dp117
btp118
Rp119
(dp120
btp121
Rp122
(dp123
bg10
(g11
((I1
S'191a9fbe76c8b3L'
p124
I-54
I53
tp125
tp126
Rp127
(dp128
g17
I53
sbg86
g63
(g9
(g90
g99
tp129
Rp130
(dp131
btp132
Rp133
(dp134
btp135
Rp136
(dp137
bg10
(g11
((I1
S'1b333333333333L'
p138
I-54
I53
tp139
tp140
Rp141
(dp142
g17
I53
sbg86
g63
(g90
tp143
Rp144
(dp145
btp146
Rp147
(dp148
bg10
(g11
((I1
S'ab50b0f27bb3L'
p149
I-50
I48
tp150
tp151
Rp152
(dp153
g17
I53
sbg86
g63
(g116
tp154
Rp155
(dp156
bg18
(g66
tp157
Rp158
(dp159
btp160
Rp161
(dp162
btp163
Rp164
(dp165
bag9
(g10
(g11
((I1
S'1bf141205bc019L'
p166
I-56
I53
tp167
tp168
Rp169
(dp170
g17
I53
sbg86
tp171
Rp172
(dp173
bg10
(g11
((I0
S'183afb7e90ff97L'
p174
I-56
I53
tp175
tp176
Rp177
(dp178
g17
I53
sbg53
g119
tp179
Rp180
(dp181
bg10
(g11
((I1
S'ab50b0f27bb3L'
p182
I-50
I48
tp183
tp184
Rp185
(dp186
g17
I53
sbg86
g75
tp187
Rp188
(dp189
bg10
(g11
((I1
S'191a9fbe76c8b3L'
p190
I-54
I53
tp191
tp192
Rp193
(dp194
g17
I53
sbg133
g53
tp195
Rp196
(dp197
bg10
(g11
((I1
S'1b333333333333L'
p198
I-54
I53
tp199
tp200
Rp201
(dp202
g17
I53
sbg144
g53
tp203
Rp204
(dp205
bg10
(g11
((I1
S'ab50b0f27bb3L'
p206
I-50
I48
tp207
tp208
Rp209
(dp210
g17
I53
sbg155
g53
g158
tp211
Rp212
(dp213
btp214
Rp215
(dp216
bag9
(g11
((I0
S'16d31fcd24e161L'
p217
I-56
I53
tp218
tp219
Rp220
(dp221
g17
I53
sbg10
(g11
((I1
S'183afb7e90ff97L'
p222
I-56
I53
tp223
tp224
Rp225
(dp226
g17
I53
sbg155
tp227
Rp228
(dp229
bg10
(g11
((I1
S'191a9fbe76c8b3L'
p230
I-54
I53
tp231
tp232
Rp233
(dp234
g17
I53
sbg18
(g130
tp235
Rp236
(dp237
btp238
Rp239
(dp240
bg10
(g11
((I1
S'1b333333333333L'
p241
I-54
I53
tp242
tp243
Rp244
(dp245
g17
I53
sbg18
(g90
tp246
Rp247
(dp248
btp249
Rp250
(dp251
bg10
(g11
((I1
S'ab50b0f27bb3L'
p252
I-50
I48
tp253
tp254
Rp255
(dp256
g17
I53
sbg158
g119
tp257
Rp258
(dp259
btp260
Rp261
(dp262
bag10
(g11
((I0
S'1L'
p263
I-1
I1
tp264
tp265
Rp266
(dp267
g17
I53
sbcsympy.core.power
Pow
p268
(g9
(csympy.core.numbers
One
p269
(I1
tp270
Rp271
(dp272
bg10
(g75
g53
tp273
Rp274
(dp275
bg10
(g155
g18
(g19
(S'q6'
p276
tp277
Rp278
(dp279
g24
g0
(g25
g26
(dp280
g28
Nsg29
Nsg30
Nsg31
Nsg32
Nsg40
Nsg34
Nsg35
Nsg33
Nsg37
Nsg36
Nsg38
Nsg39
I01
sg41
Nsg42
Nsg43
Nsg44
Nsg45
Nsg46
Nstp281
Rp282
(dp283
g50
(dp284
sbsbtp285
Rp286
(dp287
btp288
Rp289
(dp290
bg10
(csympy.core.numbers
NegativeOne
p291
(I-1
tp292
Rp293
(dp294
bg9
(g10
(g86
g158
tp295
Rp296
(dp297
bg10
(g293
g75
g155
g53
tp298
Rp299
(dp300
btp301
Rp302
(dp303
bg286
tp304
Rp305
(dp306
bg10
(g75
g63
(g278
tp307
Rp308
(dp309
bg119
tp310
Rp311
(dp312
bg10
(g308
g53
g119
tp313
Rp314
(dp315
bg10
(g293
g86
g155
g158
tp316
Rp317
(dp318
btp319
Rp320
(dp321
bcsympy.core.numbers
Half
p322
(I1
I2
tp323
Rp324
(dp325
btp326
Rp327
(dp328
btp329
Rp330
(dp331
bag10
(g11
((I0
S'1L'
p332
I-1
I1
tp333
tp334
Rp335
(dp336
g17
I53
sbg268
(g9
(g271
g274
g10
(g293
g9
(g10
(g293
g86
g158
tp337
Rp338
(dp339
bg10
(g75
g155
g53
tp340
Rp341
(dp342
btp343
Rp344
(dp345
bg286
tp346
Rp347
(dp348
bg10
(g293
g155
g286
tp349
Rp350
(dp351
bg10
(g293
g86
g155
g158
tp352
Rp353
(dp354
bg10
(g293
g75
g308
g119
tp355
Rp356
(dp357
bg10
(g293
g308
g53
g119
tp358
Rp359
(dp360
btp361
Rp362
(dp363
bg324
tp364
Rp365
(dp366
bcsympy.functions.elementary.complexes
sign
p367
(g9
(g10
(g9
(g10
(g86
g158
tp368
Rp369
(dp370
bg10
(g293
g75
g155
g53
tp371
Rp372
(dp373
btp374
Rp375
(dp376
bg308
tp377
Rp378
(dp379
bg10
(g293
g308
g155
tp380
Rp381
(dp382
bg10
(g75
g286
g119
tp383
Rp384
(dp385
bg10
(g53
g286
g119
tp386
Rp387
(dp388
btp389
Rp390
(dp391
btp392
Rp393
(dp394
btp395
Rp396
(dp397
bag10
(g11
((I0
S'1L'
p398
I-1
I1
tp399
tp400
Rp401
(dp402
g17
I53
sbg268
(g9
(g271
g10
(g9
(g10
(g293
g86
g158
tp403
Rp404
(dp405
bg10
(g75
g155
g53
tp406
Rp407
(dp408
btp409
Rp410
(dp411
bg286
tp412
Rp413
(dp414
bg10
(g293
g75
g53
tp415
Rp416
(dp417
bg10
(g293
g155
g286
tp418
Rp419
(dp420
bg10
(g86
g155
g158
tp421
Rp422
(dp423
bg10
(g308
g53
g119
tp424
Rp425
(dp426
bg10
(g293
g75
g308
g119
tp427
Rp428
(dp429
btp430
Rp431
(dp432
bg324
tp433
Rp434
(dp435
bg367
(g9
(g10
(g9
(g10
(g53
g158
tp436
Rp437
(dp438
bg10
(g86
g75
g155
tp439
Rp440
(dp441
btp442
Rp443
(dp444
bg308
tp445
Rp446
(dp447
bg10
(g158
g119
tp448
Rp449
(dp450
bg10
(g293
g86
g286
g119
tp451
Rp452
(dp453
btp454
Rp455
(dp456
btp457
Rp458
(dp459
btp460
Rp461
(dp462
bag10
(g11
((I1
S'1L'
p463
I-1
I1
tp464
tp465
Rp466
(dp467
g17
I53
sbg268
(g9
(g271
g10
(g155
g286
tp468
Rp469
(dp470
bg10
(g293
g9
(g10
(g293
g86
g158
tp471
Rp472
(dp473
bg10
(g75
g155
g53
tp474
Rp475
(dp476
btp477
Rp478
(dp479
bg286
tp480
Rp481
(dp482
bg10
(g293
g75
g53
tp483
Rp484
(dp485
bg10
(g86
g155
g158
tp486
Rp487
(dp488
bg10
(g75
g308
g119
tp489
Rp490
(dp491
bg10
(g293
g308
g53
g119
tp492
Rp493
(dp494
btp495
Rp496
(dp497
bg324
tp498
Rp499
(dp500
bg367
(g9
(g10
(g9
(g10
(g53
g158
tp501
Rp502
(dp503
bg10
(g86
g75
g155
tp504
Rp505
(dp506
btp507
Rp508
(dp509
bg286
tp510
Rp511
(dp512
bg10
(g86
g75
tp513
Rp514
(dp515
bg10
(g86
g308
g119
tp516
Rp517
(dp518
bg10
(g155
g53
g158
tp519
Rp520
(dp521
btp522
Rp523
(dp524
btp525
Rp526
(dp527
btp528
Rp529
(dp530
basS'cols'
p531
I1
sb.