ccopy_reg
_reconstructor
p0
(csympy.matrices.dense
MutableDenseMatrix
p1
c__builtin__
object
p2
Ntp3
Rp4
(dp5
S'rows'
p6
I6
sS'_mat'
p7
(lp8
csympy.core.add
Add
p9
(csympy.core.mul
Mul
p10
(csympy.core.numbers
Float
p11
((I0
S'b333333333333L'
p12
I-53
I52
tp13
tp14
Rp15
(dp16
S'_prec'
p17
I53
sbcsympy.functions.elementary.trigonometric
cos
p18
(csympy.core.symbol
Symbol
p19
(S'q1'
p20
tp21
Rp22
(dp23
S'_assumptions'
p24
g0
(csympy.core.assumptions
StdFactKB
p25
c__builtin__
dict
p26
(dp27
S'real'
p28
NsS'irrational'
p29
NsS'antihermitian'
p30
NsS'nonpositive'
p31
NsS'negative'
p32
NsS'algebraic'
p33
NsS'hermitian'
p34
NsS'infinite'
p35
NsS'integer'
p36
NsS'imaginary'
p37
NsS'odd'
p38
NsS'even'
p39
NsS'commutative'
p40
I01
sS'positive'
p41
NsS'zero'
p42
NsS'nonnegative'
p43
NsS'complex'
p44
NsS'rational'
p45
NsS'finite'
p46
Nstp47
Rp48
(dp49
S'_generator'
p50
(dp51
sbsbtp52
Rp53
(dp54
btp55
Rp56
(dp57
bg10
(g11
((I0
S'5L'
p58
I-2
I3
tp59
tp60
Rp61
(dp62
g17
I53
sbg53
csympy.functions.elementary.trigonometric
sin
p63
(g19
(S'q2'
p64
tp65
Rp66
(dp67
g24
g0
(g25
g26
(dp68
g28
NsS'polar'
p69
Nsg29
Nsg30
Nsg31
Nsg32
Nsg33
Nsg34
Nsg35
Nsg36
Nsg37
Nsg38
Nsg39
Nsg40
I01
sg41
Nsg42
Nsg43
Nsg44
Nsg45
Nsg46
Nstp70
Rp71
(dp72
g50
(dp73
sbsbtp74
Rp75
(dp76
btp77
Rp78
(dp79
bg10
(g11
((I0
S'db8bac710cb29L'
p80
I-56
I52
tp81
tp82
Rp83
(dp84
g17
I53
sbg53
g63
(g9
(g66
g19
(S'q3'
p85
tp86
Rp87
(dp88
g24
g0
(g25
g26
(dp89
g28
Nsg69
Nsg29
Nsg30
Nsg31
Nsg32
Nsg33
Nsg34
Nsg35
Nsg36
Nsg37
Nsg38
Nsg39
Nsg40
I01
sg41
Nsg42
Nsg43
Nsg44
Nsg45
Nsg46
Nstp90
Rp91
(dp92
g50
(dp93
sbsbtp94
Rp95
(dp96
btp97
Rp98
(dp99
btp100
Rp101
(dp102
bg10
(g11
((I0
S'1805bc01a36e2fL'
p103
I-52
I53
tp104
tp105
Rp106
(dp107
g17
I53
sbg53
g18
(g95
tp108
Rp109
(dp110
btp111
Rp112
(dp113
bg10
(g11
((I0
S'13645a1cac0831L'
p114
I-54
I53
tp115
tp116
Rp117
(dp118
g17
I53
sbg53
g18
(g19
(S'q5'
p119
tp120
Rp121
(dp122
g24
g0
(g25
g26
(dp123
g28
Nsg69
Nsg29
Nsg30
Nsg31
Nsg32
Nsg33
Nsg34
Nsg35
Nsg36
Nsg37
Nsg38
Nsg39
Nsg40
I01
sg41
Nsg42
Nsg43
Nsg44
Nsg45
Nsg46
Nstp124
Rp125
(dp126
g50
(dp127
sbsbtp128
Rp129
(dp130
bg109
tp131
Rp132
(dp133
bg10
(g11
((I1
S'13645a1cac0831L'
p134
I-54
I53
tp135
tp136
Rp137
(dp138
g17
I53
sbg63
(g22
tp139
Rp140
(dp141
bg63
(g19
(S'q4'
p142
tp143
Rp144
(dp145
g24
g0
(g25
g26
(dp146
g28
Nsg69
Nsg29
Nsg30
Nsg31
Nsg32
Nsg33
Nsg34
Nsg35
Nsg36
Nsg37
Nsg38
Nsg39
Nsg40
I01
sg41
Nsg42
Nsg43
Nsg44
Nsg45
Nsg46
Nstp147
Rp148
(dp149
g50
(dp150
sbsbtp151
Rp152
(dp153
bg63
(g121
tp154
Rp155
(dp156
btp157
Rp158
(dp159
bg10
(g11
((I1
S'13645a1cac0831L'
p160
I-54
I53
tp161
tp162
Rp163
(dp164
g17
I53
sbg53
g18
(g144
tp165
Rp166
(dp167
bg155
g98
tp168
Rp169
(dp170
btp171
Rp172
(dp173
bag9
(g10
(g11
((I0
S'b333333333333L'
p174
I-53
I52
tp175
tp176
Rp177
(dp178
g17
I53
sbg140
tp179
Rp180
(dp181
bg10
(g11
((I0
S'5L'
p182
I-2
I3
tp183
tp184
Rp185
(dp186
g17
I53
sbg140
g75
tp187
Rp188
(dp189
bg10
(g11
((I0
S'db8bac710cb29L'
p190
I-56
I52
tp191
tp192
Rp193
(dp194
g17
I53
sbg140
g98
tp195
Rp196
(dp197
bg10
(g11
((I0
S'1805bc01a36e2fL'
p198
I-52
I53
tp199
tp200
Rp201
(dp202
g17
I53
sbg109
g140
tp203
Rp204
(dp205
bg10
(g11
((I0
S'13645a1cac0831L'
p206
I-54
I53
tp207
tp208
Rp209
(dp210
g17
I53
sbg53
g152
g155
tp211
Rp212
(dp213
bg10
(g11
((I0
S'13645a1cac0831L'
p214
I-54
I53
tp215
tp216
Rp217
(dp218
g17
I53
sbg129
g109
g140
tp219
Rp220
(dp221
bg10
(g11
((I1
S'13645a1cac0831L'
p222
I-54
I53
tp223
tp224
Rp225
(dp226
g17
I53
sbg166
g140
g155
g98
tp227
Rp228
(dp229
btp230
Rp231
(dp232
bag9
(g11
((I0
S'3L'
p233
I-2
I2
tp234
tp235
Rp236
(dp237
g17
I53
sbg10
(g11
((I0
S'5L'
p238
I-2
I3
tp239
tp240
Rp241
(dp242
g17
I53
sbg18
(g66
tp243
Rp244
(dp245
btp246
Rp247
(dp248
bg10
(g11
((I0
S'db8bac710cb29L'
p249
I-56
I52
tp250
tp251
Rp252
(dp253
g17
I53
sbg109
tp254
Rp255
(dp256
bg10
(g11
((I1
S'1805bc01a36e2fL'
p257
I-52
I53
tp258
tp259
Rp260
(dp261
g17
I53
sbg98
tp262
Rp263
(dp264
bg10
(g11
((I1
S'13645a1cac0831L'
p265
I-54
I53
tp266
tp267
Rp268
(dp269
g17
I53
sbg129
g98
tp270
Rp271
(dp272
bg10
(g11
((I1
S'13645a1cac0831L'
p273
I-54
I53
tp274
tp275
Rp276
(dp277
g17
I53
sbg166
g109
g155
tp278
Rp279
(dp280
btp281
Rp282
(dp283
bacsympy.functions.elementary.trigonometric
atan2
p284
(g9
(g10
(csympy.core.numbers
NegativeOne
p285
(I-1
tp286
Rp287
(dp288
bg9
(g10
(g155
g98
tp289
Rp290
(dp291
bg10
(g287
g166
g129
g109
tp292
Rp293
(dp294
btp295
Rp296
(dp297
bg63
(g19
(S'q6'
p298
tp299
Rp300
(dp301
g24
g0
(g25
g26
(dp302
S'real'
p303
NsS'irrational'
p304
NsS'antihermitian'
p305
NsS'nonpositive'
p306
NsS'negative'
p307
NsS'algebraic'
p308
NsS'hermitian'
p309
NsS'infinite'
p310
NsS'integer'
p311
NsS'imaginary'
p312
NsS'odd'
p313
NsS'even'
p314
NsS'commutative'
p315
I01
sS'positive'
p316
NsS'zero'
p317
NsS'nonnegative'
p318
NsS'complex'
p319
NsS'rational'
p320
NsS'finite'
p321
Nstp322
Rp323
(dp324
g50
(dp325
sbsbtp326
Rp327
(dp328
btp329
Rp330
(dp331
bg10
(g18
(g300
tp332
Rp333
(dp334
bg109
g152
tp335
Rp336
(dp337
btp338
Rp339
(dp340
bg9
(g10
(g287
g296
g333
tp341
Rp342
(dp343
bg10
(g287
g109
g152
g327
tp344
Rp345
(dp346
btp347
Rp348
(dp349
btp350
Rp351
(dp352
bag284
(g9
(g10
(g129
g98
tp353
Rp354
(dp355
bg10
(g166
g109
g155
tp356
Rp357
(dp358
btp359
Rp360
(dp361
bcsympy.core.power
Pow
p362
(g9
(g362
(g9
(g10
(g9
(g10
(g9
(g10
(g53
g244
g63
(g87
tp363
Rp364
(dp365
btp366
Rp367
(dp368
bg10
(g53
g18
(g87
tp369
Rp370
(dp371
bg75
tp372
Rp373
(dp374
btp375
Rp376
(dp377
bg166
tp378
Rp379
(dp380
bg10
(g140
g152
tp381
Rp382
(dp383
btp384
Rp385
(dp386
bg155
tp387
Rp388
(dp389
bg10
(g9
(g10
(g53
g75
g364
tp390
Rp391
(dp392
bg10
(g287
g53
g244
g370
tp393
Rp394
(dp395
btp396
Rp397
(dp398
bg129
tp399
Rp400
(dp401
btp402
Rp403
(dp404
bcsympy.core.numbers
Integer
p405
(I2
tp406
Rp407
(dp408
btp409
Rp410
(dp411
bg362
(g9
(g10
(g9
(g10
(g9
(g10
(g244
g140
g364
tp412
Rp413
(dp414
bg10
(g370
g140
g75
tp415
Rp416
(dp417
btp418
Rp419
(dp420
bg166
tp421
Rp422
(dp423
bg10
(g287
g53
g152
tp424
Rp425
(dp426
btp427
Rp428
(dp429
bg155
tp430
Rp431
(dp432
bg10
(g9
(g10
(g140
g75
g364
tp433
Rp434
(dp435
bg10
(g287
g244
g370
g140
tp436
Rp437
(dp438
btp439
Rp440
(dp441
bg129
tp442
Rp443
(dp444
btp445
Rp446
(dp447
bg407
tp448
Rp449
(dp450
btp451
Rp452
(dp453
bcsympy.core.numbers
Half
p454
(I1
I2
tp455
Rp456
(dp457
btp458
Rp459
(dp460
btp461
Rp462
(dp463
bag284
(g9
(g10
(g287
g9
(g10
(g287
g53
g152
tp464
Rp465
(dp466
bg10
(g166
g140
g98
tp467
Rp468
(dp469
btp470
Rp471
(dp472
bg155
tp473
Rp474
(dp475
bg10
(g129
g109
g140
tp476
Rp477
(dp478
btp479
Rp480
(dp481
bg9
(g10
(g287
g9
(g382
g10
(g53
g166
g98
tp482
Rp483
(dp484
btp485
Rp486
(dp487
bg155
tp488
Rp489
(dp490
bg10
(g53
g129
g109
tp491
Rp492
(dp493
btp494
Rp495
(dp496
btp497
Rp498
(dp499
basS'cols'
p500
I1
sb.