ccopy_reg
_reconstructor
p0
(csympy.matrices.dense
MutableDenseMatrix
p1
c__builtin__
object
p2
Ntp3
Rp4
(dp5
S'rows'
p6
I6
sS'_mat'
p7
(lp8
csympy.core.add
Add
p9
(csympy.core.mul
Mul
p10
(csympy.core.numbers
Float
p11
((I1
S'b333333333333L'
p12
I-53
I52
tp13
tp14
Rp15
(dp16
S'_prec'
p17
I53
sbcsympy.functions.elementary.trigonometric
sin
p18
(csympy.core.symbol
Symbol
p19
(S'q1'
p20
tp21
Rp22
(dp23
S'_assumptions'
p24
g0
(csympy.core.assumptions
StdFactKB
p25
c__builtin__
dict
p26
(dp27
S'real'
p28
NsS'irrational'
p29
NsS'antihermitian'
p30
NsS'nonpositive'
p31
NsS'algebraic'
p32
NsS'zero'
p33
NsS'infinite'
p34
NsS'integer'
p35
NsS'hermitian'
p36
NsS'odd'
p37
NsS'imaginary'
p38
NsS'even'
p39
NsS'commutative'
p40
I01
sS'positive'
p41
NsS'negative'
p42
NsS'nonnegative'
p43
NsS'complex'
p44
NsS'rational'
p45
NsS'finite'
p46
Nstp47
Rp48
(dp49
S'_generator'
p50
(dp51
sbsbtp52
Rp53
(dp54
btp55
Rp56
(dp57
bg10
(g9
(g10
(g11
((I1
S'13645a1cac0831L'
p58
I-54
I53
tp59
tp60
Rp61
(dp62
g17
I53
sbg9
(g10
(csympy.core.numbers
NegativeOne
p63
(I-1
tp64
Rp65
(dp66
bcsympy.functions.elementary.trigonometric
cos
p67
(g19
(S'q2'
p68
tp69
Rp70
(dp71
g24
g0
(g25
g26
(dp72
g28
NsS'polar'
p73
Nsg29
Nsg30
Nsg31
Nsg32
Nsg36
Nsg34
Nsg35
Nsg38
Nsg37
Nsg39
Nsg40
I01
sg33
Nsg41
Nsg42
Nsg43
Nsg44
Nsg45
Nsg46
Nstp74
Rp75
(dp76
g50
(dp77
sbsbtp78
Rp79
(dp80
bg53
g18
(g19
(S'q3'
p81
tp82
Rp83
(dp84
g24
g0
(g25
g26
(dp85
g28
Nsg73
Nsg29
Nsg30
Nsg31
Nsg32
Nsg36
Nsg34
Nsg35
Nsg38
Nsg37
Nsg39
Nsg40
I01
sg33
Nsg41
Nsg42
Nsg43
Nsg44
Nsg45
Nsg46
Nstp86
Rp87
(dp88
g50
(dp89
sbsbtp90
Rp91
(dp92
btp93
Rp94
(dp95
bg10
(g65
g67
(g83
tp96
Rp97
(dp98
bg53
g18
(g70
tp99
Rp100
(dp101
btp102
Rp103
(dp104
btp105
Rp106
(dp107
bg67
(g19
(S'q4'
p108
tp109
Rp110
(dp111
g24
g0
(g25
g26
(dp112
g28
Nsg73
Nsg29
Nsg30
Nsg31
Nsg32
Nsg36
Nsg34
Nsg35
Nsg38
Nsg37
Nsg39
Nsg40
I01
sg33
Nsg41
Nsg42
Nsg43
Nsg44
Nsg45
Nsg46
Nstp113
Rp114
(dp115
g50
(dp116
sbsbtp117
Rp118
(dp119
btp120
Rp121
(dp122
bg10
(g11
((I1
S'13645a1cac0831L'
p123
I-54
I53
tp124
tp125
Rp126
(dp127
g17
I53
sbg67
(g22
tp128
Rp129
(dp130
bg18
(g110
tp131
Rp132
(dp133
btp134
Rp135
(dp136
btp137
Rp138
(dp139
bg18
(g19
(S'q5'
p140
tp141
Rp142
(dp143
g24
g0
(g25
g26
(dp144
g28
Nsg73
Nsg29
Nsg30
Nsg31
Nsg32
Nsg36
Nsg34
Nsg35
Nsg38
Nsg37
Nsg39
Nsg40
I01
sg33
Nsg41
Nsg42
Nsg43
Nsg44
Nsg45
Nsg46
Nstp145
Rp146
(dp147
g50
(dp148
sbsbtp149
Rp150
(dp151
btp152
Rp153
(dp154
bg10
(g9
(g10
(g11
((I0
S'13645a1cac0831L'
p155
I-54
I53
tp156
tp157
Rp158
(dp159
g17
I53
sbg53
g100
g91
tp160
Rp161
(dp162
bg10
(g11
((I1
S'13645a1cac0831L'
p163
I-54
I53
tp164
tp165
Rp166
(dp167
g17
I53
sbg79
g97
g53
tp168
Rp169
(dp170
btp171
Rp172
(dp173
bg67
(g142
tp174
Rp175
(dp176
btp177
Rp178
(dp179
bg10
(g11
((I1
S'5L'
p180
I-2
I3
tp181
tp182
Rp183
(dp184
g17
I53
sbg53
g100
tp185
Rp186
(dp187
bg10
(g11
((I0
S'1805bc01a36e2fL'
p188
I-52
I53
tp189
tp190
Rp191
(dp192
g17
I53
sbg53
g100
g91
tp193
Rp194
(dp195
bg10
(g11
((I1
S'1805bc01a36e2fL'
p196
I-52
I53
tp197
tp198
Rp199
(dp200
g17
I53
sbg79
g97
g53
tp201
Rp202
(dp203
bg10
(g11
((I1
S'1b71758e219653L'
p204
I-57
I53
tp205
tp206
Rp207
(dp208
g17
I53
sbg79
g53
g91
tp209
Rp210
(dp211
bg10
(g11
((I1
S'1b71758e219653L'
p212
I-57
I53
tp213
tp214
Rp215
(dp216
g17
I53
sbg97
g53
g100
tp217
Rp218
(dp219
btp220
Rp221
(dp222
bag9
(g10
(g9
(g10
(g11
((I1
S'13645a1cac0831L'
p223
I-54
I53
tp224
tp225
Rp226
(dp227
g17
I53
sbg129
g79
g91
tp228
Rp229
(dp230
bg10
(g11
((I1
S'13645a1cac0831L'
p231
I-54
I53
tp232
tp233
Rp234
(dp235
g17
I53
sbg129
g97
g100
tp236
Rp237
(dp238
btp239
Rp240
(dp241
bg175
tp242
Rp243
(dp244
bg10
(g11
((I0
S'5L'
p245
I-2
I3
tp246
tp247
Rp248
(dp249
g17
I53
sbg129
g79
tp250
Rp251
(dp252
bg10
(g11
((I0
S'1b71758e219653L'
p253
I-57
I53
tp254
tp255
Rp256
(dp257
g17
I53
sbg129
g79
g97
tp258
Rp259
(dp260
bg10
(g11
((I1
S'13645a1cac0831L'
p261
I-54
I53
tp262
tp263
Rp264
(dp265
g17
I53
sbg9
(g10
(g129
g79
g97
tp266
Rp267
(dp268
bg10
(g65
g129
g100
g91
tp269
Rp270
(dp271
btp272
Rp273
(dp274
bg118
g150
tp275
Rp276
(dp277
bg10
(g11
((I1
S'1805bc01a36e2fL'
p278
I-52
I53
tp279
tp280
Rp281
(dp282
g17
I53
sbg129
g79
g91
tp283
Rp284
(dp285
bg10
(g11
((I1
S'1805bc01a36e2fL'
p286
I-52
I53
tp287
tp288
Rp289
(dp290
g17
I53
sbg129
g97
g100
tp291
Rp292
(dp293
bg10
(g11
((I1
S'1b71758e219653L'
p294
I-57
I53
tp295
tp296
Rp297
(dp298
g17
I53
sbg129
g100
g91
tp299
Rp300
(dp301
btp302
Rp303
(dp304
bag9
(g243
g10
(g256
g129
g79
g97
tp305
Rp306
(dp307
bg10
(g264
g273
g118
g150
tp308
Rp309
(dp310
bg10
(g281
g129
g79
g91
tp311
Rp312
(dp313
bg10
(g289
g129
g97
g100
tp314
Rp315
(dp316
bg10
(g297
g129
g100
g91
tp317
Rp318
(dp319
btp320
Rp321
(dp322
bag10
(g9
(g10
(g11
((I0
S'13645a1cac0831L'
p323
I-54
I53
tp324
tp325
Rp326
(dp327
g17
I53
sbg9
(g10
(g129
g79
g91
tp328
Rp329
(dp330
bg10
(g129
g97
g100
tp331
Rp332
(dp333
btp334
Rp335
(dp336
bg132
tp337
Rp338
(dp339
bg10
(g11
((I1
S'13645a1cac0831L'
p340
I-54
I53
tp341
tp342
Rp343
(dp344
g17
I53
sbg118
g53
tp345
Rp346
(dp347
btp348
Rp349
(dp350
bg150
tp351
Rp352
(dp353
bag9
(g10
(g9
(g10
(g11
((I1
S'13645a1cac0831L'
p354
I-54
I53
tp355
tp356
Rp357
(dp358
g17
I53
sbg335
g118
tp359
Rp360
(dp361
bg10
(g11
((I1
S'13645a1cac0831L'
p362
I-54
I53
tp363
tp364
Rp365
(dp366
g17
I53
sbg53
g132
tp367
Rp368
(dp369
btp370
Rp371
(dp372
bg175
tp373
Rp374
(dp375
bg10
(g65
g9
(g10
(g11
((I0
S'13645a1cac0831L'
p376
I-54
I53
tp377
tp378
Rp379
(dp380
g17
I53
sbg129
g79
g97
tp381
Rp382
(dp383
bg10
(g11
((I1
S'13645a1cac0831L'
p384
I-54
I53
tp385
tp386
Rp387
(dp388
g17
I53
sbg129
g100
g91
tp389
Rp390
(dp391
btp392
Rp393
(dp394
bg150
tp395
Rp396
(dp397
btp398
Rp399
(dp400
bacsympy.core.numbers
Zero
p401
(I0
tp402
Rp403
(dp404
bag9
(g10
(g11
((I0
S'b333333333333L'
p405
I-53
I52
tp406
tp407
Rp408
(dp409
g17
I53
sbg129
tp410
Rp411
(dp412
bg10
(g371
g150
tp413
Rp414
(dp415
bg10
(g393
g175
tp416
Rp417
(dp418
bg10
(g11
((I0
S'5L'
p419
I-2
I3
tp420
tp421
Rp422
(dp423
g17
I53
sbg129
g100
tp424
Rp425
(dp426
bg10
(g11
((I0
S'1805bc01a36e2fL'
p427
I-52
I53
tp428
tp429
Rp430
(dp431
g17
I53
sbg129
g79
g97
tp432
Rp433
(dp434
bg10
(g11
((I0
S'1b71758e219653L'
p435
I-57
I53
tp436
tp437
Rp438
(dp439
g17
I53
sbg129
g79
g91
tp440
Rp441
(dp442
bg10
(g11
((I0
S'1b71758e219653L'
p443
I-57
I53
tp444
tp445
Rp446
(dp447
g17
I53
sbg129
g97
g100
tp448
Rp449
(dp450
bg10
(g11
((I1
S'1805bc01a36e2fL'
p451
I-52
I53
tp452
tp453
Rp454
(dp455
g17
I53
sbg129
g100
g91
tp456
Rp457
(dp458
btp459
Rp460
(dp461
bag9
(g10
(g9
(g10
(g11
((I1
S'13645a1cac0831L'
p462
I-54
I53
tp463
tp464
Rp465
(dp466
g17
I53
sbg79
g53
g91
tp467
Rp468
(dp469
bg10
(g11
((I1
S'13645a1cac0831L'
p470
I-54
I53
tp471
tp472
Rp473
(dp474
g17
I53
sbg97
g53
g100
tp475
Rp476
(dp477
btp478
Rp479
(dp480
bg175
tp481
Rp482
(dp483
bg10
(g11
((I0
S'5L'
p484
I-2
I3
tp485
tp486
Rp487
(dp488
g17
I53
sbg79
g53
tp489
Rp490
(dp491
bg10
(g11
((I0
S'1b71758e219653L'
p492
I-57
I53
tp493
tp494
Rp495
(dp496
g17
I53
sbg79
g97
g53
tp497
Rp498
(dp499
bg10
(g11
((I1
S'13645a1cac0831L'
p500
I-54
I53
tp501
tp502
Rp503
(dp504
g17
I53
sbg9
(g10
(g79
g97
g53
tp505
Rp506
(dp507
bg10
(g65
g53
g100
g91
tp508
Rp509
(dp510
btp511
Rp512
(dp513
bg118
g150
tp514
Rp515
(dp516
bg10
(g11
((I1
S'1805bc01a36e2fL'
p517
I-52
I53
tp518
tp519
Rp520
(dp521
g17
I53
sbg79
g53
g91
tp522
Rp523
(dp524
bg10
(g11
((I1
S'1805bc01a36e2fL'
p525
I-52
I53
tp526
tp527
Rp528
(dp529
g17
I53
sbg97
g53
g100
tp530
Rp531
(dp532
bg10
(g11
((I1
S'1b71758e219653L'
p533
I-57
I53
tp534
tp535
Rp536
(dp537
g17
I53
sbg53
g100
g91
tp538
Rp539
(dp540
btp541
Rp542
(dp543
bag9
(g482
g10
(g495
g79
g97
g53
tp544
Rp545
(dp546
bg10
(g503
g512
g118
g150
tp547
Rp548
(dp549
bg10
(g520
g79
g53
g91
tp550
Rp551
(dp552
bg10
(g528
g97
g53
g100
tp553
Rp554
(dp555
bg10
(g536
g53
g100
g91
tp556
Rp557
(dp558
btp559
Rp560
(dp561
bag10
(g9
(g10
(g11
((I0
S'13645a1cac0831L'
p562
I-54
I53
tp563
tp564
Rp565
(dp566
g17
I53
sbg9
(g10
(g79
g53
g91
tp567
Rp568
(dp569
bg10
(g97
g53
g100
tp570
Rp571
(dp572
btp573
Rp574
(dp575
bg132
tp576
Rp577
(dp578
bg10
(g11
((I0
S'13645a1cac0831L'
p579
I-54
I53
tp580
tp581
Rp582
(dp583
g17
I53
sbg129
g118
tp584
Rp585
(dp586
btp587
Rp588
(dp589
bg150
tp590
Rp591
(dp592
bag9
(g10
(g9
(g10
(g11
((I0
S'13645a1cac0831L'
p593
I-54
I53
tp594
tp595
Rp596
(dp597
g17
I53
sbg129
g132
tp598
Rp599
(dp600
bg10
(g11
((I1
S'13645a1cac0831L'
p601
I-54
I53
tp602
tp603
Rp604
(dp605
g17
I53
sbg574
g118
tp606
Rp607
(dp608
btp609
Rp610
(dp611
bg175
tp612
Rp613
(dp614
bg10
(g65
g9
(g10
(g11
((I0
S'13645a1cac0831L'
p615
I-54
I53
tp616
tp617
Rp618
(dp619
g17
I53
sbg79
g97
g53
tp620
Rp621
(dp622
bg10
(g11
((I1
S'13645a1cac0831L'
p623
I-54
I53
tp624
tp625
Rp626
(dp627
g17
I53
sbg53
g100
g91
tp628
Rp629
(dp630
btp631
Rp632
(dp633
bg150
tp634
Rp635
(dp636
btp637
Rp638
(dp639
bag403
ag403
ag9
(g10
(g11
((I1
S'5L'
p640
I-2
I3
tp641
tp642
Rp643
(dp644
g17
I53
sbg100
tp645
Rp646
(dp647
bg10
(g9
(g10
(g11
((I0
S'13645a1cac0831L'
p648
I-54
I53
tp649
tp650
Rp651
(dp652
g17
I53
sbg100
g91
tp653
Rp654
(dp655
bg10
(g11
((I1
S'13645a1cac0831L'
p656
I-54
I53
tp657
tp658
Rp659
(dp660
g17
I53
sbg79
g97
tp661
Rp662
(dp663
btp664
Rp665
(dp666
bg175
tp667
Rp668
(dp669
bg10
(g11
((I0
S'1805bc01a36e2fL'
p670
I-52
I53
tp671
tp672
Rp673
(dp674
g17
I53
sbg100
g91
tp675
Rp676
(dp677
bg10
(g11
((I1
S'1805bc01a36e2fL'
p678
I-52
I53
tp679
tp680
Rp681
(dp682
g17
I53
sbg79
g97
tp683
Rp684
(dp685
bg10
(g11
((I1
S'1b71758e219653L'
p686
I-57
I53
tp687
tp688
Rp689
(dp690
g17
I53
sbg79
g91
tp691
Rp692
(dp693
bg10
(g11
((I1
S'1b71758e219653L'
p694
I-57
I53
tp695
tp696
Rp697
(dp698
g17
I53
sbg97
g100
tp699
Rp700
(dp701
bg10
(g9
(g10
(g11
((I0
S'13645a1cac0831L'
p702
I-54
I53
tp703
tp704
Rp705
(dp706
g17
I53
sbg79
g91
tp707
Rp708
(dp709
bg10
(g11
((I0
S'13645a1cac0831L'
p710
I-54
I53
tp711
tp712
Rp713
(dp714
g17
I53
sbg97
g100
tp715
Rp716
(dp717
btp718
Rp719
(dp720
bg118
g150
tp721
Rp722
(dp723
btp724
Rp725
(dp726
bag9
(g668
g10
(g673
g100
g91
tp727
Rp728
(dp729
bg10
(g681
g79
g97
tp730
Rp731
(dp732
bg10
(g689
g79
g91
tp733
Rp734
(dp735
bg10
(g697
g97
g100
tp736
Rp737
(dp738
bg722
tp739
Rp740
(dp741
bag10
(g65
g9
(g10
(g11
((I0
S'13645a1cac0831L'
p742
I-54
I53
tp743
tp744
Rp745
(dp746
g17
I53
sbg100
g91
tp747
Rp748
(dp749
bg10
(g11
((I1
S'13645a1cac0831L'
p750
I-54
I53
tp751
tp752
Rp753
(dp754
g17
I53
sbg79
g97
tp755
Rp756
(dp757
btp758
Rp759
(dp760
bg132
g150
tp761
Rp762
(dp763
bag9
(g10
(g65
g9
(g10
(g11
((I1
S'13645a1cac0831L'
p764
I-54
I53
tp765
tp766
Rp767
(dp768
g17
I53
sbg79
g91
tp769
Rp770
(dp771
bg10
(g11
((I1
S'13645a1cac0831L'
p772
I-54
I53
tp773
tp774
Rp775
(dp776
g17
I53
sbg97
g100
tp777
Rp778
(dp779
btp780
Rp781
(dp782
bg150
tp783
Rp784
(dp785
bg10
(g759
g118
g175
tp786
Rp787
(dp788
btp789
Rp790
(dp791
bag403
ag403
ag9
(g10
(csympy.core.power
Pow
p792
(g9
(g792
(g9
(g10
(g9
(g10
(g9
(g10
(g65
g79
g91
tp793
Rp794
(dp795
bg10
(g65
g97
g100
tp796
Rp797
(dp798
btp799
Rp800
(dp801
bg150
tp802
Rp803
(dp804
bg10
(g9
(g10
(g79
g97
tp805
Rp806
(dp807
bg10
(g65
g100
g91
tp808
Rp809
(dp810
btp811
Rp812
(dp813
bg118
g175
tp814
Rp815
(dp816
btp817
Rp818
(dp819
bg67
(g19
(S'q6'
p820
tp821
Rp822
(dp823
g24
g0
(g25
g26
(dp824
g28
Nsg29
Nsg30
Nsg31
Nsg32
Nsg33
Nsg34
Nsg35
Nsg36
Nsg37
Nsg38
Nsg39
Nsg40
I01
sg41
Nsg42
Nsg43
Nsg44
Nsg45
Nsg46
Nstp825
Rp826
(dp827
g50
(dp828
sbsbtp829
Rp830
(dp831
btp832
Rp833
(dp834
bg10
(g65
g812
g132
g18
(g822
tp835
Rp836
(dp837
btp838
Rp839
(dp840
btp841
Rp842
(dp843
bcsympy.core.numbers
Integer
p844
(I2
tp845
Rp846
(dp847
btp848
Rp849
(dp850
bg792
(g9
(g10
(g818
g836
tp851
Rp852
(dp853
bg10
(g812
g830
g132
tp854
Rp855
(dp856
btp857
Rp858
(dp859
bg846
tp860
Rp861
(dp862
btp863
Rp864
(dp865
bg65
tp866
Rp867
(dp868
bg9
(g10
(g9
(g10
(g9
(g10
(g100
g91
tp869
Rp870
(dp871
bg10
(g65
g79
g97
tp872
Rp873
(dp874
btp875
Rp876
(dp877
bg150
tp878
Rp879
(dp880
bg10
(g800
g118
g175
tp881
Rp882
(dp883
btp884
Rp885
(dp886
bg830
tp887
Rp888
(dp889
bg10
(g9
(g10
(g79
g91
tp890
Rp891
(dp892
bg10
(g97
g100
tp893
Rp894
(dp895
btp896
Rp897
(dp898
bg132
g836
tp899
Rp900
(dp901
btp902
Rp903
(dp904
bg9
(g10
(g65
g818
g836
tp905
Rp906
(dp907
bg10
(g65
g812
g830
g132
tp908
Rp909
(dp910
btp911
Rp912
(dp913
btp914
Rp915
(dp916
bg10
(g867
g9
(g10
(g885
g836
tp917
Rp918
(dp919
bg10
(g800
g830
g132
tp920
Rp921
(dp922
btp923
Rp924
(dp925
bg842
tp926
Rp927
(dp928
btp929
Rp930
(dp931
bag930
ag9
(g10
(g867
g842
g9
(g10
(g812
g118
g830
tp932
Rp933
(dp934
bg10
(g65
g812
g175
g132
g836
tp935
Rp936
(dp937
btp938
Rp939
(dp940
btp941
Rp942
(dp943
bg10
(g867
g912
g9
(g10
(g9
(g10
(g100
g91
tp944
Rp945
(dp946
bg10
(g65
g79
g97
tp947
Rp948
(dp949
btp950
Rp951
(dp952
bg118
g836
tp953
Rp954
(dp955
bg10
(g65
g812
g175
g830
g132
tp956
Rp957
(dp958
btp959
Rp960
(dp961
btp962
Rp963
(dp964
btp965
Rp966
(dp967
bag9
(g10
(g867
g842
g9
(g10
(g800
g175
tp968
Rp969
(dp970
bg10
(g65
g812
g118
g150
tp971
Rp972
(dp973
btp974
Rp975
(dp976
bg836
tp977
Rp978
(dp979
bg10
(g867
g975
g912
g830
tp980
Rp981
(dp982
btp983
Rp984
(dp985
bag9
(g10
(g867
g849
tp986
Rp987
(dp988
bg10
(g867
g9
(g10
(g65
g818
g836
tp989
Rp990
(dp991
bg10
(g951
g830
g132
tp992
Rp993
(dp994
btp995
Rp996
(dp997
bg912
tp998
Rp999
(dp1000
btp1001
Rp1002
(dp1003
bag10
(g792
(g9
(g792
(g9
(g10
(g273
g175
tp1004
Rp1005
(dp1006
bg10
(g65
g9
(g10
(g335
g118
tp1007
Rp1008
(dp1009
bg10
(g53
g132
tp1010
Rp1011
(dp1012
btp1013
Rp1014
(dp1015
bg150
tp1016
Rp1017
(dp1018
btp1019
Rp1020
(dp1021
bg846
tp1022
Rp1023
(dp1024
bg792
(g9
(g10
(g512
g175
tp1025
Rp1026
(dp1027
bg10
(g65
g9
(g10
(g574
g118
tp1028
Rp1029
(dp1030
bg10
(g65
g129
g132
tp1031
Rp1032
(dp1033
btp1034
Rp1035
(dp1036
bg150
tp1037
Rp1038
(dp1039
btp1040
Rp1041
(dp1042
bg846
tp1043
Rp1044
(dp1045
btp1046
Rp1047
(dp1048
bcsympy.core.numbers
Rational
p1049
(I-1
I2
tp1050
Rp1051
(dp1052
btp1053
Rp1054
(dp1055
bg792
(g9
(g1023
g1044
g792
(g9
(g10
(g65
g800
g175
tp1056
Rp1057
(dp1058
bg10
(g812
g118
g150
tp1059
Rp1060
(dp1061
btp1062
Rp1063
(dp1064
bg846
tp1065
Rp1066
(dp1067
btp1068
Rp1069
(dp1070
bg65
tp1071
Rp1072
(dp1073
bg9
(g10
(g800
g175
tp1074
Rp1075
(dp1076
bg10
(g65
g812
g118
g150
tp1077
Rp1078
(dp1079
btp1080
Rp1081
(dp1082
bg9
(g10
(csympy.core.numbers
Half
p1083
(I1
I2
tp1084
Rp1085
(dp1086
bg1020
g9
(g10
(g846
g9
(g10
(g65
g106
g118
tp1087
Rp1088
(dp1089
bg10
(g65
g129
g132
tp1090
Rp1091
(dp1092
btp1093
Rp1094
(dp1095
bg150
tp1096
Rp1097
(dp1098
bg10
(g846
g9
(g10
(g53
g100
g91
tp1099
Rp1100
(dp1101
bg10
(g65
g79
g97
g53
tp1102
Rp1103
(dp1104
btp1105
Rp1106
(dp1107
bg175
tp1108
Rp1109
(dp1110
btp1111
Rp1112
(dp1113
btp1114
Rp1115
(dp1116
bg10
(g1085
g1041
g9
(g10
(g846
g9
(g10
(g65
g335
g118
tp1117
Rp1118
(dp1119
bg10
(g65
g53
g132
tp1120
Rp1121
(dp1122
btp1123
Rp1124
(dp1125
bg150
tp1126
Rp1127
(dp1128
bg10
(g846
g273
g175
tp1129
Rp1130
(dp1131
btp1132
Rp1133
(dp1134
btp1135
Rp1136
(dp1137
btp1138
Rp1139
(dp1140
btp1141
Rp1142
(dp1143
bag9
(g10
(g792
(g1047
g1085
tp1144
Rp1145
(dp1146
bg1072
g9
(g10
(g9
(g10
(g79
g97
tp1147
Rp1148
(dp1149
bg10
(g65
g100
g91
tp1150
Rp1151
(dp1152
btp1153
Rp1154
(dp1155
bg175
tp1156
Rp1157
(dp1158
bg10
(g800
g118
g150
tp1159
Rp1160
(dp1161
btp1162
Rp1163
(dp1164
btp1165
Rp1166
(dp1167
bg10
(g1054
g1072
g1081
g9
(g10
(g1085
g1020
g9
(g10
(g846
g9
(g10
(g65
g129
g79
g91
tp1168
Rp1169
(dp1170
bg10
(g65
g129
g97
g100
tp1171
Rp1172
(dp1173
btp1174
Rp1175
(dp1176
bg175
tp1177
Rp1178
(dp1179
bg10
(g844
(I-2
tp1180
Rp1181
(dp1182
bg273
g118
g150
tp1183
Rp1184
(dp1185
btp1186
Rp1187
(dp1188
btp1189
Rp1190
(dp1191
bg10
(g1085
g1041
g9
(g10
(g846
g106
g175
tp1192
Rp1193
(dp1194
bg10
(g1181
g512
g118
g150
tp1195
Rp1196
(dp1197
btp1198
Rp1199
(dp1200
btp1201
Rp1202
(dp1203
btp1204
Rp1205
(dp1206
btp1207
Rp1208
(dp1209
btp1210
Rp1211
(dp1212
bag1211
ag9
(g10
(g1054
g1072
g1081
g9
(g10
(g1020
g9
(g10
(g335
g132
tp1213
Rp1214
(dp1215
bg10
(g65
g118
g53
tp1216
Rp1217
(dp1218
btp1219
Rp1220
(dp1221
bg150
tp1222
Rp1223
(dp1224
bg10
(g1041
g9
(g10
(g574
g132
tp1225
Rp1226
(dp1227
bg10
(g129
g118
tp1228
Rp1229
(dp1230
btp1231
Rp1232
(dp1233
bg150
tp1234
Rp1235
(dp1236
btp1237
Rp1238
(dp1239
btp1240
Rp1241
(dp1242
bg10
(g65
g1145
g1072
g812
g132
g150
tp1243
Rp1244
(dp1245
btp1246
Rp1247
(dp1248
bag9
(g10
(g1145
g1072
g9
(g10
(g65
g897
g150
tp1249
Rp1250
(dp1251
bg10
(g812
g118
g175
tp1252
Rp1253
(dp1254
btp1255
Rp1256
(dp1257
btp1258
Rp1259
(dp1260
bg10
(g1054
g1072
g1081
g9
(g10
(g1085
g1020
g9
(g10
(g1181
g273
g150
tp1261
Rp1262
(dp1263
bg10
(g846
g1124
g175
tp1264
Rp1265
(dp1266
btp1267
Rp1268
(dp1269
btp1270
Rp1271
(dp1272
bg10
(g1085
g1041
g9
(g10
(g1181
g512
g150
tp1273
Rp1274
(dp1275
bg10
(g846
g9
(g10
(g129
g132
tp1276
Rp1277
(dp1278
bg10
(g65
g574
g118
tp1279
Rp1280
(dp1281
btp1282
Rp1283
(dp1284
bg175
tp1285
Rp1286
(dp1287
btp1288
Rp1289
(dp1290
btp1291
Rp1292
(dp1293
btp1294
Rp1295
(dp1296
btp1297
Rp1298
(dp1299
btp1300
Rp1301
(dp1302
bag403
ag9
(g10
(g792
(g1047
g65
tp1303
Rp1304
(dp1305
bg9
(g10
(g1035
g150
tp1306
Rp1307
(dp1308
bg10
(g65
g512
g175
tp1309
Rp1310
(dp1311
btp1312
Rp1313
(dp1314
bg9
(g10
(g1094
g150
tp1315
Rp1316
(dp1317
bg10
(g1106
g175
tp1318
Rp1319
(dp1320
btp1321
Rp1322
(dp1323
btp1324
Rp1325
(dp1326
bg10
(g1304
g9
(g10
(g1124
g150
tp1327
Rp1328
(dp1329
bg10
(g273
g175
tp1330
Rp1331
(dp1332
btp1333
Rp1334
(dp1335
bg1020
tp1336
Rp1337
(dp1338
btp1339
Rp1340
(dp1341
bag9
(g10
(g1304
g1313
g9
(g10
(g1175
g175
tp1342
Rp1343
(dp1344
bg10
(g65
g273
g118
g150
tp1345
Rp1346
(dp1347
btp1348
Rp1349
(dp1350
btp1351
Rp1352
(dp1353
bg10
(g1304
g1020
g9
(g10
(g106
g175
tp1354
Rp1355
(dp1356
bg10
(g65
g512
g118
g150
tp1357
Rp1358
(dp1359
btp1360
Rp1361
(dp1362
btp1363
Rp1364
(dp1365
btp1366
Rp1367
(dp1368
bag1367
ag9
(g10
(g1304
g1313
g1220
g150
tp1369
Rp1370
(dp1371
bg10
(g1304
g1020
g1232
g150
tp1372
Rp1373
(dp1374
btp1375
Rp1376
(dp1377
bag9
(g10
(g1304
g1313
g9
(g10
(g1124
g175
tp1378
Rp1379
(dp1380
bg10
(g65
g273
g150
tp1381
Rp1382
(dp1383
btp1384
Rp1385
(dp1386
btp1387
Rp1388
(dp1389
bg10
(g1304
g9
(g10
(g1283
g175
tp1390
Rp1391
(dp1392
bg10
(g65
g512
g150
tp1393
Rp1394
(dp1395
btp1396
Rp1397
(dp1398
bg1020
tp1399
Rp1400
(dp1401
btp1402
Rp1403
(dp1404
bag403
asS'cols'
p1405
I6
sb.