ccopy_reg
_reconstructor
p0
(csympy.matrices.dense
MutableDenseMatrix
p1
c__builtin__
object
p2
Ntp3
Rp4
(dp5
S'rows'
p6
I7
sS'_mat'
p7
(lp8
csympy.core.add
Add
p9
(csympy.core.mul
Mul
p10
(csympy.core.numbers
Float
p11
((I1
S'b333333333333L'
p12
I-53
I52
tp13
tp14
Rp15
(dp16
S'_prec'
p17
I53
sbcsympy.functions.elementary.trigonometric
sin
p18
(csympy.core.symbol
Symbol
p19
(S'q1'
p20
tp21
Rp22
(dp23
S'_assumptions'
p24
g0
(csympy.core.assumptions
StdFactKB
p25
c__builtin__
dict
p26
(dp27
S'real'
p28
NsS'irrational'
p29
NsS'antihermitian'
p30
NsS'nonpositive'
p31
NsS'negative'
p32
NsS'algebraic'
p33
NsS'hermitian'
p34
NsS'infinite'
p35
NsS'integer'
p36
NsS'imaginary'
p37
NsS'odd'
p38
NsS'even'
p39
NsS'commutative'
p40
I01
sS'positive'
p41
NsS'zero'
p42
NsS'nonnegative'
p43
NsS'complex'
p44
NsS'rational'
p45
NsS'finite'
p46
Nstp47
Rp48
(dp49
S'_generator'
p50
(dp51
sbsbtp52
Rp53
(dp54
btp55
Rp56
(dp57
bg10
(g11
((I1
S'5L'
p58
I-2
I3
tp59
tp60
Rp61
(dp62
g17
I53
sbg53
g18
(g19
(S'q2'
p63
tp64
Rp65
(dp66
g24
g0
(g25
g26
(dp67
g28
NsS'polar'
p68
Nsg29
Nsg30
Nsg31
Nsg32
Nsg33
Nsg34
Nsg35
Nsg36
Nsg37
Nsg38
Nsg39
Nsg40
I01
sg41
Nsg42
Nsg43
Nsg44
Nsg45
Nsg46
Nstp69
Rp70
(dp71
g50
(dp72
sbsbtp73
Rp74
(dp75
btp76
Rp77
(dp78
bg10
(g11
((I1
S'db8bac710cb29L'
p79
I-56
I52
tp80
tp81
Rp82
(dp83
g17
I53
sbg53
g18
(g9
(g65
g19
(S'q3'
p84
tp85
Rp86
(dp87
g24
g0
(g25
g26
(dp88
g28
Nsg68
Nsg29
Nsg30
Nsg31
Nsg32
Nsg33
Nsg34
Nsg35
Nsg36
Nsg37
Nsg38
Nsg39
Nsg40
I01
sg41
Nsg42
Nsg43
Nsg44
Nsg45
Nsg46
Nstp89
Rp90
(dp91
g50
(dp92
sbsbtp93
Rp94
(dp95
btp96
Rp97
(dp98
btp99
Rp100
(dp101
bg10
(g11
((I1
S'1805bc01a36e2fL'
p102
I-52
I53
tp103
tp104
Rp105
(dp106
g17
I53
sbcsympy.functions.elementary.trigonometric
cos
p107
(g94
tp108
Rp109
(dp110
bg53
tp111
Rp112
(dp113
bg10
(g11
((I1
S'13645a1cac0831L'
p114
I-54
I53
tp115
tp116
Rp117
(dp118
g17
I53
sbg107
(g22
tp119
Rp120
(dp121
bg18
(g19
(S'q4'
p122
tp123
Rp124
(dp125
g24
g0
(g25
g26
(dp126
g28
Nsg68
Nsg29
Nsg30
Nsg31
Nsg32
Nsg33
Nsg34
Nsg35
Nsg36
Nsg37
Nsg38
Nsg39
Nsg40
I01
sg41
Nsg42
Nsg43
Nsg44
Nsg45
Nsg46
Nstp127
Rp128
(dp129
g50
(dp130
sbsbtp131
Rp132
(dp133
bg18
(g19
(S'q5'
p134
tp135
Rp136
(dp137
g24
g0
(g25
g26
(dp138
g28
Nsg68
Nsg29
Nsg30
Nsg31
Nsg32
Nsg33
Nsg34
Nsg35
Nsg36
Nsg37
Nsg38
Nsg39
Nsg40
I01
sg41
Nsg42
Nsg43
Nsg44
Nsg45
Nsg46
Nstp139
Rp140
(dp141
g50
(dp142
sbsbtp143
Rp144
(dp145
btp146
Rp147
(dp148
bg10
(g11
((I1
S'13645a1cac0831L'
p149
I-54
I53
tp150
tp151
Rp152
(dp153
g17
I53
sbg107
(g136
tp154
Rp155
(dp156
bg109
g53
tp157
Rp158
(dp159
bg10
(g11
((I0
S'13645a1cac0831L'
p160
I-54
I53
tp161
tp162
Rp163
(dp164
g17
I53
sbg107
(g124
tp165
Rp166
(dp167
bg53
g144
g97
tp168
Rp169
(dp170
btp171
Rp172
(dp173
bag10
(g9
(g10
(g11
((I0
S'5L'
p174
I-2
I3
tp175
tp176
Rp177
(dp178
g17
I53
sbg107
(g65
tp179
Rp180
(dp181
btp182
Rp183
(dp184
bg10
(g11
((I0
S'db8bac710cb29L'
p185
I-56
I52
tp186
tp187
Rp188
(dp189
g17
I53
sbg109
tp190
Rp191
(dp192
bg10
(g11
((I1
S'1805bc01a36e2fL'
p193
I-52
I53
tp194
tp195
Rp196
(dp197
g17
I53
sbg97
tp198
Rp199
(dp200
bg10
(g11
((I1
S'13645a1cac0831L'
p201
I-54
I53
tp202
tp203
Rp204
(dp205
g17
I53
sbg155
g97
tp206
Rp207
(dp208
bg10
(g11
((I1
S'13645a1cac0831L'
p209
I-54
I53
tp210
tp211
Rp212
(dp213
g17
I53
sbg166
g109
g144
tp214
Rp215
(dp216
btp217
Rp218
(dp219
bg120
tp220
Rp221
(dp222
bag10
(g9
(g191
g199
g10
(g204
g155
g97
tp223
Rp224
(dp225
bg10
(g212
g166
g109
g144
tp226
Rp227
(dp228
btp229
Rp230
(dp231
bg120
tp232
Rp233
(dp234
bag10
(g11
((I0
S'13645a1cac0831L'
p235
I-54
I53
tp236
tp237
Rp238
(dp239
g17
I53
sbg9
(g10
(csympy.core.numbers
NegativeOne
p240
(I-1
tp241
Rp242
(dp243
bg166
g53
tp244
Rp245
(dp246
bg10
(g120
g132
g97
tp247
Rp248
(dp249
btp250
Rp251
(dp252
bg144
tp253
Rp254
(dp255
bag9
(g10
(g11
((I1
S'13645a1cac0831L'
p256
I-54
I53
tp257
tp258
Rp259
(dp260
g17
I53
sbg120
g109
g144
tp261
Rp262
(dp263
bg10
(g11
((I1
S'13645a1cac0831L'
p264
I-54
I53
tp265
tp266
Rp267
(dp268
g17
I53
sbg155
g53
g132
tp269
Rp270
(dp271
bg10
(g11
((I1
S'13645a1cac0831L'
p272
I-54
I53
tp273
tp274
Rp275
(dp276
g17
I53
sbg120
g166
g155
g97
tp277
Rp278
(dp279
btp280
Rp281
(dp282
bacsympy.core.numbers
Zero
p283
(I0
tp284
Rp285
(dp286
bag9
(g10
(g11
((I0
S'b333333333333L'
p287
I-53
I52
tp288
tp289
Rp290
(dp291
g17
I53
sbg120
tp292
Rp293
(dp294
bg10
(g11
((I0
S'5L'
p295
I-2
I3
tp296
tp297
Rp298
(dp299
g17
I53
sbg120
g74
tp300
Rp301
(dp302
bg10
(g11
((I0
S'db8bac710cb29L'
p303
I-56
I52
tp304
tp305
Rp306
(dp307
g17
I53
sbg120
g97
tp308
Rp309
(dp310
bg10
(g11
((I0
S'1805bc01a36e2fL'
p311
I-52
I53
tp312
tp313
Rp314
(dp315
g17
I53
sbg120
g109
tp316
Rp317
(dp318
bg10
(g11
((I0
S'13645a1cac0831L'
p319
I-54
I53
tp320
tp321
Rp322
(dp323
g17
I53
sbg120
g155
g109
tp324
Rp325
(dp326
bg10
(g11
((I1
S'13645a1cac0831L'
p327
I-54
I53
tp328
tp329
Rp330
(dp331
g17
I53
sbg53
g132
g144
tp332
Rp333
(dp334
bg10
(g11
((I1
S'13645a1cac0831L'
p335
I-54
I53
tp336
tp337
Rp338
(dp339
g17
I53
sbg120
g166
g144
g97
tp340
Rp341
(dp342
btp343
Rp344
(dp345
bag10
(g9
(g10
(g11
((I0
S'5L'
p346
I-2
I3
tp347
tp348
Rp349
(dp350
g17
I53
sbg180
tp351
Rp352
(dp353
bg10
(g11
((I0
S'db8bac710cb29L'
p354
I-56
I52
tp355
tp356
Rp357
(dp358
g17
I53
sbg109
tp359
Rp360
(dp361
bg10
(g11
((I1
S'1805bc01a36e2fL'
p362
I-52
I53
tp363
tp364
Rp365
(dp366
g17
I53
sbg97
tp367
Rp368
(dp369
bg10
(g11
((I1
S'13645a1cac0831L'
p370
I-54
I53
tp371
tp372
Rp373
(dp374
g17
I53
sbg155
g97
tp375
Rp376
(dp377
bg10
(g11
((I1
S'13645a1cac0831L'
p378
I-54
I53
tp379
tp380
Rp381
(dp382
g17
I53
sbg166
g109
g144
tp383
Rp384
(dp385
btp386
Rp387
(dp388
bg53
tp389
Rp390
(dp391
bag10
(g9
(g360
g368
g10
(g373
g155
g97
tp392
Rp393
(dp394
bg10
(g381
g166
g109
g144
tp395
Rp396
(dp397
btp398
Rp399
(dp400
bg53
tp401
Rp402
(dp403
bag10
(g11
((I0
S'13645a1cac0831L'
p404
I-54
I53
tp405
tp406
Rp407
(dp408
g17
I53
sbg9
(g10
(g120
g166
tp409
Rp410
(dp411
bg10
(g53
g132
g97
tp412
Rp413
(dp414
btp415
Rp416
(dp417
bg144
tp418
Rp419
(dp420
bag9
(g10
(g11
((I0
S'13645a1cac0831L'
p421
I-54
I53
tp422
tp423
Rp424
(dp425
g17
I53
sbg120
g155
g132
tp426
Rp427
(dp428
bg10
(g11
((I1
S'13645a1cac0831L'
p429
I-54
I53
tp430
tp431
Rp432
(dp433
g17
I53
sbg109
g53
g144
tp434
Rp435
(dp436
bg10
(g11
((I1
S'13645a1cac0831L'
p437
I-54
I53
tp438
tp439
Rp440
(dp441
g17
I53
sbg166
g155
g53
g97
tp442
Rp443
(dp444
btp445
Rp446
(dp447
bag285
ag285
ag9
(g10
(g11
((I1
S'5L'
p448
I-2
I3
tp449
tp450
Rp451
(dp452
g17
I53
sbg74
tp453
Rp454
(dp455
bg10
(g11
((I1
S'db8bac710cb29L'
p456
I-56
I52
tp457
tp458
Rp459
(dp460
g17
I53
sbg97
tp461
Rp462
(dp463
bg10
(g11
((I1
S'1805bc01a36e2fL'
p464
I-52
I53
tp465
tp466
Rp467
(dp468
g17
I53
sbg109
tp469
Rp470
(dp471
bg10
(g11
((I1
S'13645a1cac0831L'
p472
I-54
I53
tp473
tp474
Rp475
(dp476
g17
I53
sbg155
g109
tp477
Rp478
(dp479
bg10
(g11
((I0
S'13645a1cac0831L'
p480
I-54
I53
tp481
tp482
Rp483
(dp484
g17
I53
sbg166
g144
g97
tp485
Rp486
(dp487
btp488
Rp489
(dp490
bag9
(g462
g470
g478
g486
tp491
Rp492
(dp493
bag10
(g11
((I0
S'13645a1cac0831L'
p494
I-54
I53
tp495
tp496
Rp497
(dp498
g17
I53
sbg109
g132
g144
tp499
Rp500
(dp501
bag9
(g10
(g11
((I0
S'13645a1cac0831L'
p502
I-54
I53
tp503
tp504
Rp505
(dp506
g17
I53
sbg144
g97
tp507
Rp508
(dp509
bg10
(g11
((I1
S'13645a1cac0831L'
p510
I-54
I53
tp511
tp512
Rp513
(dp514
g17
I53
sbg166
g155
g109
tp515
Rp516
(dp517
btp518
Rp519
(dp520
bag285
ag10
(g11
((I0
S'1L'
p521
I-2
I1
tp522
tp523
Rp524
(dp525
g17
I53
sbcsympy.core.power
Pow
p526
(g9
(csympy.core.numbers
One
p527
(I1
tp528
Rp529
(dp530
bg10
(g9
(g10
(g9
(g10
(g242
g120
g132
tp531
Rp532
(dp533
bg10
(g166
g53
g97
tp534
Rp535
(dp536
btp537
Rp538
(dp539
bg155
tp540
Rp541
(dp542
bg10
(g109
g53
g144
tp543
Rp544
(dp545
btp546
Rp547
(dp548
bg18
(g19
(S'q6'
p549
tp550
Rp551
(dp552
g24
g0
(g25
g26
(dp553
S'real'
p554
NsS'irrational'
p555
NsS'antihermitian'
p556
NsS'nonpositive'
p557
NsS'negative'
p558
NsS'algebraic'
p559
NsS'hermitian'
p560
NsS'infinite'
p561
NsS'integer'
p562
NsS'imaginary'
p563
NsS'odd'
p564
NsS'even'
p565
NsS'commutative'
p566
I01
sS'positive'
p567
NsS'zero'
p568
NsS'nonnegative'
p569
NsS'complex'
p570
NsS'rational'
p571
NsS'finite'
p572
Nstp573
Rp574
(dp575
g50
(dp576
sbsbtp577
Rp578
(dp579
btp580
Rp581
(dp582
bg10
(g9
(g10
(g120
g166
tp583
Rp584
(dp585
bg10
(g53
g132
g97
tp586
Rp587
(dp588
btp589
Rp590
(dp591
bg107
(g551
tp592
Rp593
(dp594
btp595
Rp596
(dp597
bg10
(g242
g9
(g10
(g53
g132
tp598
Rp599
(dp600
bg10
(g120
g166
g97
tp601
Rp602
(dp603
btp604
Rp605
(dp606
bg144
tp607
Rp608
(dp609
bg10
(g242
g9
(g10
(g144
g97
tp610
Rp611
(dp612
bg10
(g242
g166
g155
g109
tp613
Rp614
(dp615
btp616
Rp617
(dp618
bg593
tp619
Rp620
(dp621
bg10
(g120
g155
g109
tp622
Rp623
(dp624
bg10
(g242
g109
g132
g578
tp625
Rp626
(dp627
btp628
Rp629
(dp630
bcsympy.core.numbers
Rational
p631
(I-1
I2
tp632
Rp633
(dp634
btp635
Rp636
(dp637
bg9
(g10
(g9
(g10
(g9
(g10
(g53
g132
tp638
Rp639
(dp640
bg10
(g120
g166
g97
tp641
Rp642
(dp643
btp644
Rp645
(dp646
bg155
tp647
Rp648
(dp649
bg10
(g120
g109
g144
tp650
Rp651
(dp652
btp653
Rp654
(dp655
bg578
tp656
Rp657
(dp658
bg10
(g9
(g10
(g242
g120
g132
tp659
Rp660
(dp661
bg10
(g166
g53
g97
tp662
Rp663
(dp664
btp665
Rp666
(dp667
bg144
tp668
Rp669
(dp670
bg10
(g242
g9
(g10
(g166
g53
tp671
Rp672
(dp673
bg10
(g242
g120
g132
g97
tp674
Rp675
(dp676
btp677
Rp678
(dp679
bg593
tp680
Rp681
(dp682
bg10
(g242
g155
g109
g53
tp683
Rp684
(dp685
btp686
Rp687
(dp688
btp689
Rp690
(dp691
bag10
(g11
((I0
S'1L'
p692
I-2
I1
tp693
tp694
Rp695
(dp696
g17
I53
sbg636
g9
(g10
(g242
g9
(g10
(g109
g144
tp697
Rp698
(dp699
bg10
(g166
g155
g97
tp700
Rp701
(dp702
btp703
Rp704
(dp705
bg593
tp706
Rp707
(dp708
bg10
(g132
g578
g97
tp709
Rp710
(dp711
bg10
(g242
g9
(g10
(g144
g97
tp712
Rp713
(dp714
bg10
(g242
g166
g155
g109
tp715
Rp716
(dp717
btp718
Rp719
(dp720
bg53
g578
tp721
Rp722
(dp723
bg10
(g242
g120
g155
g97
tp724
Rp725
(dp726
bg10
(g593
g109
g53
g132
tp727
Rp728
(dp729
bg10
(g242
g120
g166
g109
g144
tp730
Rp731
(dp732
btp733
Rp734
(dp735
btp736
Rp737
(dp738
bag10
(g11
((I0
S'1L'
p739
I-2
I1
tp740
tp741
Rp742
(dp743
g17
I53
sbg636
g9
(g10
(g242
g704
g593
tp744
Rp745
(dp746
bg10
(g132
g578
g97
tp747
Rp748
(dp749
bg10
(g242
g719
g53
g578
tp750
Rp751
(dp752
bg10
(g242
g120
g155
g97
tp753
Rp754
(dp755
bg10
(g593
g109
g53
g132
tp756
Rp757
(dp758
bg10
(g242
g120
g166
g109
g144
tp759
Rp760
(dp761
btp762
Rp763
(dp764
btp765
Rp766
(dp767
bag10
(g11
((I0
S'1L'
p768
I-2
I1
tp769
tp770
Rp771
(dp772
g17
I53
sbg636
g9
(g10
(g9
(g10
(g242
g120
g132
tp773
Rp774
(dp775
bg10
(g166
g53
g97
tp776
Rp777
(dp778
btp779
Rp780
(dp781
bg593
tp782
Rp783
(dp784
bg10
(g242
g678
g144
tp785
Rp786
(dp787
bg10
(g242
g9
(g10
(g120
g166
tp788
Rp789
(dp790
bg10
(g53
g132
g97
tp791
Rp792
(dp793
btp794
Rp795
(dp796
bg155
g578
tp797
Rp798
(dp799
bg10
(g242
g166
g109
g578
tp800
Rp801
(dp802
bg10
(g242
g155
g593
g109
g132
tp803
Rp804
(dp805
btp806
Rp807
(dp808
btp809
Rp810
(dp811
bag10
(g242
g636
g9
(g10
(g11
((I0
S'1L'
p812
I-2
I1
tp813
tp814
Rp815
(dp816
g17
I53
sbg9
(g10
(g666
g144
tp817
Rp818
(dp819
bg10
(g242
g155
g109
g53
tp820
Rp821
(dp822
btp823
Rp824
(dp825
bg578
tp826
Rp827
(dp828
bg10
(g11
((I0
S'1L'
p829
I-2
I1
tp830
tp831
Rp832
(dp833
g17
I53
sbg9
(g10
(g155
g97
tp834
Rp835
(dp836
bg10
(g166
g109
g144
tp837
Rp838
(dp839
btp840
Rp841
(dp842
bg593
tp843
Rp844
(dp845
bg10
(g11
((I0
S'1L'
p846
I-2
I1
tp847
tp848
Rp849
(dp850
g17
I53
sbg9
(g10
(g53
g132
tp851
Rp852
(dp853
bg10
(g120
g166
g97
tp854
Rp855
(dp856
btp857
Rp858
(dp859
bg155
tp860
Rp861
(dp862
bg10
(g11
((I0
S'1L'
p863
I-2
I1
tp864
tp865
Rp866
(dp867
g17
I53
sbg120
g109
g144
tp868
Rp869
(dp870
btp871
Rp872
(dp873
btp874
Rp875
(dp876
bag10
(g11
((I0
S'1L'
p877
I-2
I1
tp878
tp879
Rp880
(dp881
g17
I53
sbg636
g9
(g10
(g9
(g10
(g538
g155
tp882
Rp883
(dp884
bg10
(g109
g53
g144
tp885
Rp886
(dp887
btp888
Rp889
(dp890
bg107
(g551
tp891
Rp892
(dp893
btp894
Rp895
(dp896
bg10
(g9
(g10
(g144
g97
tp897
Rp898
(dp899
bg10
(g242
g166
g155
g109
tp900
Rp901
(dp902
btp903
Rp904
(dp905
bg578
tp906
Rp907
(dp908
bg10
(g242
g795
g578
tp909
Rp910
(dp911
bg10
(g242
g593
g109
g132
tp912
Rp913
(dp914
btp915
Rp916
(dp917
btp918
Rp919
(dp920
bag10
(g526
(g9
(g529
g10
(g242
g9
(g10
(g9
(g10
(g242
g120
g132
tp921
Rp922
(dp923
bg10
(g166
g53
g97
tp924
Rp925
(dp926
btp927
Rp928
(dp929
bg155
tp930
Rp931
(dp932
bg10
(g109
g53
g144
tp933
Rp934
(dp935
btp936
Rp937
(dp938
bg578
tp939
Rp940
(dp941
bg10
(g242
g9
(g10
(g120
g166
tp942
Rp943
(dp944
bg10
(g53
g132
g97
tp945
Rp946
(dp947
btp948
Rp949
(dp950
bg593
tp951
Rp952
(dp953
bg10
(g242
g9
(g10
(g53
g132
tp954
Rp955
(dp956
bg10
(g120
g166
g97
tp957
Rp958
(dp959
btp960
Rp961
(dp962
bg144
tp963
Rp964
(dp965
bg10
(g242
g9
(g10
(g242
g144
g97
tp966
Rp967
(dp968
bg10
(g166
g155
g109
tp969
Rp970
(dp971
btp972
Rp973
(dp974
bg593
tp975
Rp976
(dp977
bg10
(g120
g155
g109
tp978
Rp979
(dp980
bg10
(g109
g132
g578
tp981
Rp982
(dp983
btp984
Rp985
(dp986
bg633
tp987
Rp988
(dp989
bg9
(g10
(g11
((I0
S'1L'
p990
I-2
I1
tp991
tp992
Rp993
(dp994
g17
I53
sbg9
(g10
(g9
(g10
(g9
(g10
(g53
g132
tp995
Rp996
(dp997
bg10
(g120
g166
g97
tp998
Rp999
(dp1000
btp1001
Rp1002
(dp1003
bg155
tp1004
Rp1005
(dp1006
bg10
(g120
g109
g144
tp1007
Rp1008
(dp1009
btp1010
Rp1011
(dp1012
bg578
tp1013
Rp1014
(dp1015
bg10
(g242
g9
(g10
(g166
g53
tp1016
Rp1017
(dp1018
bg10
(g242
g120
g132
g97
tp1019
Rp1020
(dp1021
btp1022
Rp1023
(dp1024
bg593
tp1025
Rp1026
(dp1027
bg10
(g242
g9
(g10
(g242
g120
g132
tp1028
Rp1029
(dp1030
bg10
(g166
g53
g97
tp1031
Rp1032
(dp1033
btp1034
Rp1035
(dp1036
bg144
tp1037
Rp1038
(dp1039
bg10
(g155
g109
g53
tp1040
Rp1041
(dp1042
btp1043
Rp1044
(dp1045
bcsympy.functions.elementary.complexes
sign
p1046
(g9
(g10
(g9
(g10
(g928
g155
tp1047
Rp1048
(dp1049
bg10
(g109
g53
g144
tp1050
Rp1051
(dp1052
btp1053
Rp1054
(dp1055
bg593
tp1056
Rp1057
(dp1058
bg10
(g9
(g10
(g144
g97
tp1059
Rp1060
(dp1061
bg10
(g242
g166
g155
g109
tp1062
Rp1063
(dp1064
btp1065
Rp1066
(dp1067
bg578
tp1068
Rp1069
(dp1070
bg10
(g242
g590
g18
(g551
tp1071
Rp1072
(dp1073
btp1074
Rp1075
(dp1076
bg10
(g242
g593
g109
g132
tp1077
Rp1078
(dp1079
btp1080
Rp1081
(dp1082
btp1083
Rp1084
(dp1085
btp1086
Rp1087
(dp1088
bg10
(g11
((I0
S'1L'
p1089
I-1
I1
tp1090
tp1091
Rp1092
(dp1093
g17
I53
sbg9
(g529
g10
(g242
g9
(g10
(g538
g155
tp1094
Rp1095
(dp1096
bg10
(g109
g53
g144
tp1097
Rp1098
(dp1099
btp1100
Rp1101
(dp1102
bg578
tp1103
Rp1104
(dp1105
bg10
(g242
g9
(g10
(g120
g166
tp1106
Rp1107
(dp1108
bg10
(g53
g132
g97
tp1109
Rp1110
(dp1111
btp1112
Rp1113
(dp1114
bg593
tp1115
Rp1116
(dp1117
bg10
(g242
g1002
g144
tp1118
Rp1119
(dp1120
bg10
(g242
g9
(g10
(g242
g144
g97
tp1121
Rp1122
(dp1123
bg10
(g166
g155
g109
tp1124
Rp1125
(dp1126
btp1127
Rp1128
(dp1129
bg593
tp1130
Rp1131
(dp1132
bg10
(g120
g155
g109
tp1133
Rp1134
(dp1135
bg10
(g109
g132
g578
tp1136
Rp1137
(dp1138
btp1139
Rp1140
(dp1141
bcsympy.core.function
Derivative
p1142
(g10
(g242
g1084
tp1143
Rp1144
(dp1145
bcsympy.core.containers
Tuple
p1146
(g22
g529
tp1147
Rp1148
(dp1149
btp1150
Rp1151
(dp1152
btp1153
Rp1154
(dp1155
btp1156
Rp1157
(dp1158
btp1159
Rp1160
(dp1161
bag10
(g988
g9
(g10
(g11
((I0
S'1L'
p1162
I-2
I1
tp1163
tp1164
Rp1165
(dp1166
g17
I53
sbg9
(g10
(g242
g9
(g10
(g109
g144
tp1167
Rp1168
(dp1169
bg10
(g166
g155
g97
tp1170
Rp1171
(dp1172
btp1173
Rp1174
(dp1175
bg593
tp1176
Rp1177
(dp1178
bg10
(g120
g155
g97
tp1179
Rp1180
(dp1181
bg10
(g132
g578
g97
tp1182
Rp1183
(dp1184
bg10
(g242
g9
(g10
(g144
g97
tp1185
Rp1186
(dp1187
bg10
(g242
g166
g155
g109
tp1188
Rp1189
(dp1190
btp1191
Rp1192
(dp1193
bg53
g578
tp1194
Rp1195
(dp1196
bg10
(g120
g166
g109
g144
tp1197
Rp1198
(dp1199
bg10
(g593
g109
g53
g132
tp1200
Rp1201
(dp1202
btp1203
Rp1204
(dp1205
bg1084
tp1206
Rp1207
(dp1208
bg10
(g11
((I0
S'1L'
p1209
I-1
I1
tp1210
tp1211
Rp1212
(dp1213
g17
I53
sbg1140
g1142
(g1144
g1146
(g65
g529
tp1214
Rp1215
(dp1216
btp1217
Rp1218
(dp1219
btp1220
Rp1221
(dp1222
btp1223
Rp1224
(dp1225
btp1226
Rp1227
(dp1228
bag10
(g988
g9
(g10
(g11
((I0
S'1L'
p1229
I-2
I1
tp1230
tp1231
Rp1232
(dp1233
g17
I53
sbg1204
g1084
tp1234
Rp1235
(dp1236
bg10
(g11
((I0
S'1L'
p1237
I-1
I1
tp1238
tp1239
Rp1240
(dp1241
g17
I53
sbg9
(g529
g10
(g242
g9
(g10
(g9
(g10
(g242
g120
g132
tp1242
Rp1243
(dp1244
bg10
(g166
g53
g97
tp1245
Rp1246
(dp1247
btp1248
Rp1249
(dp1250
bg155
tp1251
Rp1252
(dp1253
bg10
(g109
g53
g144
tp1254
Rp1255
(dp1256
btp1257
Rp1258
(dp1259
bg578
tp1260
Rp1261
(dp1262
bg10
(g242
g795
g593
tp1263
Rp1264
(dp1265
bg10
(g242
g858
g144
tp1266
Rp1267
(dp1268
bg10
(g242
g9
(g10
(g242
g144
g97
tp1269
Rp1270
(dp1271
bg10
(g166
g155
g109
tp1272
Rp1273
(dp1274
btp1275
Rp1276
(dp1277
bg593
tp1278
Rp1279
(dp1280
bg10
(g120
g155
g109
tp1281
Rp1282
(dp1283
bg10
(g109
g132
g578
tp1284
Rp1285
(dp1286
btp1287
Rp1288
(dp1289
bg1142
(g1144
g1146
(g86
g529
tp1290
Rp1291
(dp1292
btp1293
Rp1294
(dp1295
btp1296
Rp1297
(dp1298
btp1299
Rp1300
(dp1301
btp1302
Rp1303
(dp1304
bag10
(g988
g9
(g10
(g11
((I0
S'1L'
p1305
I-1
I1
tp1306
tp1307
Rp1308
(dp1309
g17
I53
sbg985
g1142
(g1144
g1146
(g124
g529
tp1310
Rp1311
(dp1312
btp1313
Rp1314
(dp1315
btp1316
Rp1317
(dp1318
bg10
(g11
((I1
S'1L'
p1319
I-2
I1
tp1320
tp1321
Rp1322
(dp1323
g17
I53
sbg9
(g10
(g242
g9
(g10
(g166
g53
tp1324
Rp1325
(dp1326
bg10
(g242
g120
g132
g97
tp1327
Rp1328
(dp1329
btp1330
Rp1331
(dp1332
bg144
tp1333
Rp1334
(dp1335
bg10
(g242
g9
(g10
(g242
g120
g132
tp1336
Rp1337
(dp1338
bg10
(g166
g53
g97
tp1339
Rp1340
(dp1341
btp1342
Rp1343
(dp1344
bg593
tp1345
Rp1346
(dp1347
bg10
(g9
(g10
(g120
g166
tp1348
Rp1349
(dp1350
bg10
(g53
g132
g97
tp1351
Rp1352
(dp1353
btp1354
Rp1355
(dp1356
bg155
g578
tp1357
Rp1358
(dp1359
bg10
(g166
g109
g578
tp1360
Rp1361
(dp1362
bg10
(g155
g593
g109
g132
tp1363
Rp1364
(dp1365
btp1366
Rp1367
(dp1368
bg1084
tp1369
Rp1370
(dp1371
btp1372
Rp1373
(dp1374
btp1375
Rp1376
(dp1377
bag10
(g988
g9
(g10
(g11
((I0
S'1L'
p1378
I-1
I1
tp1379
tp1380
Rp1381
(dp1382
g17
I53
sbg1140
g1142
(g1144
g1146
(g136
g529
tp1383
Rp1384
(dp1385
btp1386
Rp1387
(dp1388
btp1389
Rp1390
(dp1391
bg10
(g11
((I1
S'1L'
p1392
I-2
I1
tp1393
tp1394
Rp1395
(dp1396
g17
I53
sbg9
(g10
(g9
(g10
(g9
(g10
(g242
g120
g132
tp1397
Rp1398
(dp1399
bg10
(g166
g53
g97
tp1400
Rp1401
(dp1402
btp1403
Rp1404
(dp1405
bg144
tp1406
Rp1407
(dp1408
bg10
(g242
g155
g109
g53
tp1409
Rp1410
(dp1411
btp1412
Rp1413
(dp1414
bg578
tp1415
Rp1416
(dp1417
bg10
(g9
(g10
(g155
g97
tp1418
Rp1419
(dp1420
bg10
(g166
g109
g144
tp1421
Rp1422
(dp1423
btp1424
Rp1425
(dp1426
bg593
tp1427
Rp1428
(dp1429
bg10
(g242
g9
(g10
(g53
g132
tp1430
Rp1431
(dp1432
bg10
(g120
g166
g97
tp1433
Rp1434
(dp1435
btp1436
Rp1437
(dp1438
bg155
tp1439
Rp1440
(dp1441
bg10
(g242
g120
g109
g144
tp1442
Rp1443
(dp1444
btp1445
Rp1446
(dp1447
bg1084
tp1448
Rp1449
(dp1450
btp1451
Rp1452
(dp1453
btp1454
Rp1455
(dp1456
bag10
(g988
g9
(g10
(g11
((I0
S'1L'
p1457
I-2
I1
tp1458
tp1459
Rp1460
(dp1461
g17
I53
sbg9
(g10
(g1054
g593
tp1462
Rp1463
(dp1464
bg10
(g1066
g578
tp1465
Rp1466
(dp1467
bg10
(g242
g9
(g10
(g120
g166
tp1468
Rp1469
(dp1470
bg10
(g53
g132
g97
tp1471
Rp1472
(dp1473
btp1474
Rp1475
(dp1476
bg1072
tp1477
Rp1478
(dp1479
bg10
(g242
g593
g109
g132
tp1480
Rp1481
(dp1482
btp1483
Rp1484
(dp1485
bg1084
tp1486
Rp1487
(dp1488
bg10
(g11
((I0
S'1L'
p1489
I-1
I1
tp1490
tp1491
Rp1492
(dp1493
g17
I53
sbg9
(g529
g10
(g242
g9
(g10
(g928
g155
tp1494
Rp1495
(dp1496
bg10
(g109
g53
g144
tp1497
Rp1498
(dp1499
btp1500
Rp1501
(dp1502
bg578
tp1503
Rp1504
(dp1505
bg10
(g242
g1475
g892
tp1506
Rp1507
(dp1508
bg10
(g242
g9
(g10
(g53
g132
tp1509
Rp1510
(dp1511
bg10
(g120
g166
g97
tp1512
Rp1513
(dp1514
btp1515
Rp1516
(dp1517
bg144
tp1518
Rp1519
(dp1520
bg10
(g242
g9
(g10
(g242
g144
g97
tp1521
Rp1522
(dp1523
bg10
(g166
g155
g109
tp1524
Rp1525
(dp1526
btp1527
Rp1528
(dp1529
bg892
tp1530
Rp1531
(dp1532
bg10
(g120
g155
g109
tp1533
Rp1534
(dp1535
bg10
(g109
g132
g578
tp1536
Rp1537
(dp1538
btp1539
Rp1540
(dp1541
bg1142
(g1144
g1146
(g551
g529
tp1542
Rp1543
(dp1544
btp1545
Rp1546
(dp1547
btp1548
Rp1549
(dp1550
btp1551
Rp1552
(dp1553
btp1554
Rp1555
(dp1556
bag10
(g526
(g9
(g529
g10
(g9
(g10
(g9
(g10
(g242
g120
g132
tp1557
Rp1558
(dp1559
bg10
(g166
g53
g97
tp1560
Rp1561
(dp1562
btp1563
Rp1564
(dp1565
bg155
tp1566
Rp1567
(dp1568
bg10
(g109
g53
g144
tp1569
Rp1570
(dp1571
btp1572
Rp1573
(dp1574
bg578
tp1575
Rp1576
(dp1577
bg10
(g9
(g10
(g120
g166
tp1578
Rp1579
(dp1580
bg10
(g53
g132
g97
tp1581
Rp1582
(dp1583
btp1584
Rp1585
(dp1586
bg593
tp1587
Rp1588
(dp1589
bg10
(g9
(g10
(g53
g132
tp1590
Rp1591
(dp1592
bg10
(g120
g166
g97
tp1593
Rp1594
(dp1595
btp1596
Rp1597
(dp1598
bg144
tp1599
Rp1600
(dp1601
bg10
(g9
(g10
(g144
g97
tp1602
Rp1603
(dp1604
bg10
(g242
g166
g155
g109
tp1605
Rp1606
(dp1607
btp1608
Rp1609
(dp1610
bg593
tp1611
Rp1612
(dp1613
bg10
(g109
g132
g578
tp1614
Rp1615
(dp1616
bg10
(g242
g120
g155
g109
tp1617
Rp1618
(dp1619
btp1620
Rp1621
(dp1622
bg633
tp1623
Rp1624
(dp1625
bg9
(g10
(g11
((I0
S'1L'
p1626
I-2
I1
tp1627
tp1628
Rp1629
(dp1630
g17
I53
sbg9
(g10
(g9
(g10
(g9
(g10
(g53
g132
tp1631
Rp1632
(dp1633
bg10
(g120
g166
g97
tp1634
Rp1635
(dp1636
btp1637
Rp1638
(dp1639
bg155
tp1640
Rp1641
(dp1642
bg10
(g120
g109
g144
tp1643
Rp1644
(dp1645
btp1646
Rp1647
(dp1648
bg578
tp1649
Rp1650
(dp1651
bg10
(g242
g9
(g10
(g166
g53
tp1652
Rp1653
(dp1654
bg10
(g242
g120
g132
g97
tp1655
Rp1656
(dp1657
btp1658
Rp1659
(dp1660
bg593
tp1661
Rp1662
(dp1663
bg10
(g242
g9
(g10
(g242
g120
g132
tp1664
Rp1665
(dp1666
bg10
(g166
g53
g97
tp1667
Rp1668
(dp1669
btp1670
Rp1671
(dp1672
bg144
tp1673
Rp1674
(dp1675
bg10
(g155
g109
g53
tp1676
Rp1677
(dp1678
btp1679
Rp1680
(dp1681
bg1046
(g9
(g10
(g9
(g10
(g9
(g10
(g53
g132
tp1682
Rp1683
(dp1684
bg10
(g120
g166
g97
tp1685
Rp1686
(dp1687
btp1688
Rp1689
(dp1690
bg155
tp1691
Rp1692
(dp1693
bg10
(g120
g109
g144
tp1694
Rp1695
(dp1696
btp1697
Rp1698
(dp1699
bg593
tp1700
Rp1701
(dp1702
bg10
(g9
(g10
(g166
g53
tp1703
Rp1704
(dp1705
bg10
(g242
g120
g132
g97
tp1706
Rp1707
(dp1708
btp1709
Rp1710
(dp1711
bg578
tp1712
Rp1713
(dp1714
bg10
(g155
g97
tp1715
Rp1716
(dp1717
bg10
(g166
g109
g144
tp1718
Rp1719
(dp1720
btp1721
Rp1722
(dp1723
btp1724
Rp1725
(dp1726
btp1727
Rp1728
(dp1729
bg10
(g11
((I0
S'1L'
p1730
I-1
I1
tp1731
tp1732
Rp1733
(dp1734
g17
I53
sbg9
(g529
g10
(g1501
g578
tp1735
Rp1736
(dp1737
bg10
(g1475
g892
tp1738
Rp1739
(dp1740
bg10
(g1516
g144
tp1741
Rp1742
(dp1743
bg10
(g9
(g10
(g144
g97
tp1744
Rp1745
(dp1746
bg10
(g242
g166
g155
g109
tp1747
Rp1748
(dp1749
btp1750
Rp1751
(dp1752
bg593
tp1753
Rp1754
(dp1755
bg10
(g109
g132
g578
tp1756
Rp1757
(dp1758
bg10
(g242
g120
g155
g109
tp1759
Rp1760
(dp1761
btp1762
Rp1763
(dp1764
bg1142
(g1725
g1146
(g22
g529
tp1765
Rp1766
(dp1767
btp1768
Rp1769
(dp1770
btp1771
Rp1772
(dp1773
btp1774
Rp1775
(dp1776
btp1777
Rp1778
(dp1779
bag10
(g1624
g9
(g10
(g11
((I0
S'1L'
p1780
I-2
I1
tp1781
tp1782
Rp1783
(dp1784
g17
I53
sbg9
(g10
(g9
(g10
(g109
g144
tp1785
Rp1786
(dp1787
bg10
(g166
g155
g97
tp1788
Rp1789
(dp1790
btp1791
Rp1792
(dp1793
bg593
tp1794
Rp1795
(dp1796
bg1180
g10
(g242
g9
(g10
(g144
g97
tp1797
Rp1798
(dp1799
bg10
(g242
g166
g155
g109
tp1800
Rp1801
(dp1802
btp1803
Rp1804
(dp1805
bg53
g578
tp1806
Rp1807
(dp1808
bg10
(g242
g132
g578
g97
tp1809
Rp1810
(dp1811
bg1198
g1201
tp1812
Rp1813
(dp1814
bg1725
tp1815
Rp1816
(dp1817
bg10
(g11
((I0
S'1L'
p1818
I-1
I1
tp1819
tp1820
Rp1821
(dp1822
g17
I53
sbg9
(g529
g10
(g1258
g578
tp1823
Rp1824
(dp1825
bg10
(g1475
g892
tp1826
Rp1827
(dp1828
bg10
(g858
g144
tp1829
Rp1830
(dp1831
bg10
(g1751
g593
tp1832
Rp1833
(dp1834
bg10
(g109
g132
g578
tp1835
Rp1836
(dp1837
bg10
(g242
g120
g155
g109
tp1838
Rp1839
(dp1840
btp1841
Rp1842
(dp1843
bg1142
(g1725
g1146
(g65
g529
tp1844
Rp1845
(dp1846
btp1847
Rp1848
(dp1849
btp1850
Rp1851
(dp1852
btp1853
Rp1854
(dp1855
btp1856
Rp1857
(dp1858
bag10
(g1624
g9
(g10
(g11
((I0
S'1L'
p1859
I-2
I1
tp1860
tp1861
Rp1862
(dp1863
g17
I53
sbg1813
g1725
tp1864
Rp1865
(dp1866
bg10
(g11
((I0
S'1L'
p1867
I-1
I1
tp1868
tp1869
Rp1870
(dp1871
g17
I53
sbg9
(g529
g10
(g1258
g578
tp1872
Rp1873
(dp1874
bg10
(g1475
g892
tp1875
Rp1876
(dp1877
bg10
(g858
g144
tp1878
Rp1879
(dp1880
bg10
(g1751
g593
tp1881
Rp1882
(dp1883
bg10
(g109
g132
g578
tp1884
Rp1885
(dp1886
bg10
(g242
g120
g155
g109
tp1887
Rp1888
(dp1889
btp1890
Rp1891
(dp1892
bg1142
(g1725
g1146
(g86
g529
tp1893
Rp1894
(dp1895
btp1896
Rp1897
(dp1898
btp1899
Rp1900
(dp1901
btp1902
Rp1903
(dp1904
btp1905
Rp1906
(dp1907
bag10
(g1624
g9
(g10
(g11
((I0
S'1L'
p1908
I-2
I1
tp1909
tp1910
Rp1911
(dp1912
g17
I53
sbg9
(g10
(g9
(g10
(g166
g53
tp1913
Rp1914
(dp1915
bg10
(g242
g120
g132
g97
tp1916
Rp1917
(dp1918
btp1919
Rp1920
(dp1921
bg144
tp1922
Rp1923
(dp1924
bg10
(g9
(g10
(g242
g120
g132
tp1925
Rp1926
(dp1927
bg10
(g166
g53
g97
tp1928
Rp1929
(dp1930
btp1931
Rp1932
(dp1933
bg593
tp1934
Rp1935
(dp1936
bg10
(g166
g109
g578
tp1937
Rp1938
(dp1939
bg10
(g242
g9
(g10
(g120
g166
tp1940
Rp1941
(dp1942
bg10
(g53
g132
g97
tp1943
Rp1944
(dp1945
btp1946
Rp1947
(dp1948
bg155
g578
tp1949
Rp1950
(dp1951
bg10
(g155
g593
g109
g132
tp1952
Rp1953
(dp1954
btp1955
Rp1956
(dp1957
bg1725
tp1958
Rp1959
(dp1960
bg10
(g11
((I0
S'1L'
p1961
I-1
I1
tp1962
tp1963
Rp1964
(dp1965
g17
I53
sbg1763
g1142
(g1725
g1146
(g124
g529
tp1966
Rp1967
(dp1968
btp1969
Rp1970
(dp1971
btp1972
Rp1973
(dp1974
btp1975
Rp1976
(dp1977
btp1978
Rp1979
(dp1980
bag10
(g1624
g9
(g10
(g11
((I0
S'1L'
p1981
I-2
I1
tp1982
tp1983
Rp1984
(dp1985
g17
I53
sbg9
(g10
(g9
(g10
(g155
g97
tp1986
Rp1987
(dp1988
bg10
(g166
g109
g144
tp1989
Rp1990
(dp1991
btp1992
Rp1993
(dp1994
bg593
tp1995
Rp1996
(dp1997
bg10
(g1689
g155
tp1998
Rp1999
(dp2000
bg10
(g242
g9
(g10
(g9
(g10
(g242
g120
g132
tp2001
Rp2002
(dp2003
bg10
(g166
g53
g97
tp2004
Rp2005
(dp2006
btp2007
Rp2008
(dp2009
bg144
tp2010
Rp2011
(dp2012
bg10
(g242
g155
g109
g53
tp2013
Rp2014
(dp2015
btp2016
Rp2017
(dp2018
bg578
tp2019
Rp2020
(dp2021
bg10
(g120
g109
g144
tp2022
Rp2023
(dp2024
btp2025
Rp2026
(dp2027
bg1725
tp2028
Rp2029
(dp2030
bg10
(g11
((I0
S'1L'
p2031
I-1
I1
tp2032
tp2033
Rp2034
(dp2035
g17
I53
sbg1763
g1142
(g1725
g1146
(g136
g529
tp2036
Rp2037
(dp2038
btp2039
Rp2040
(dp2041
btp2042
Rp2043
(dp2044
btp2045
Rp2046
(dp2047
btp2048
Rp2049
(dp2050
bag10
(g1624
g9
(g10
(g11
((I0
S'1L'
p2051
I-2
I1
tp2052
tp2053
Rp2054
(dp2055
g17
I53
sbg9
(g10
(g9
(g10
(g1249
g155
tp2056
Rp2057
(dp2058
bg10
(g109
g53
g144
tp2059
Rp2060
(dp2061
btp2062
Rp2063
(dp2064
bg892
tp2065
Rp2066
(dp2067
bg10
(g242
g9
(g10
(g120
g166
tp2068
Rp2069
(dp2070
bg10
(g53
g132
g97
tp2071
Rp2072
(dp2073
btp2074
Rp2075
(dp2076
bg1072
tp2077
Rp2078
(dp2079
bg10
(g242
g9
(g10
(g144
g97
tp2080
Rp2081
(dp2082
bg10
(g242
g166
g155
g109
tp2083
Rp2084
(dp2085
btp2086
Rp2087
(dp2088
bg1072
tp2089
Rp2090
(dp2091
bg10
(g892
g109
g132
tp2092
Rp2093
(dp2094
btp2095
Rp2096
(dp2097
bg1725
tp2098
Rp2099
(dp2100
bg10
(g11
((I0
S'1L'
p2101
I-1
I1
tp2102
tp2103
Rp2104
(dp2105
g17
I53
sbg9
(g529
g10
(g1258
g578
tp2106
Rp2107
(dp2108
bg10
(g1475
g892
tp2109
Rp2110
(dp2111
bg10
(g858
g144
tp2112
Rp2113
(dp2114
bg10
(g1751
g593
tp2115
Rp2116
(dp2117
bg10
(g109
g132
g578
tp2118
Rp2119
(dp2120
bg10
(g242
g120
g155
g109
tp2121
Rp2122
(dp2123
btp2124
Rp2125
(dp2126
bg1142
(g1725
g1146
(g551
g529
tp2127
Rp2128
(dp2129
btp2130
Rp2131
(dp2132
btp2133
Rp2134
(dp2135
btp2136
Rp2137
(dp2138
btp2139
Rp2140
(dp2141
bag10
(g526
(g9
(g529
g10
(g9
(g10
(g53
g132
tp2142
Rp2143
(dp2144
bg10
(g120
g166
g97
tp2145
Rp2146
(dp2147
btp2148
Rp2149
(dp2150
bg144
tp2151
Rp2152
(dp2153
bg10
(g9
(g10
(g242
g144
g97
tp2154
Rp2155
(dp2156
bg10
(g166
g155
g109
tp2157
Rp2158
(dp2159
btp2160
Rp2161
(dp2162
bg593
tp2163
Rp2164
(dp2165
bg10
(g242
g9
(g10
(g9
(g10
(g242
g120
g132
tp2166
Rp2167
(dp2168
bg10
(g166
g53
g97
tp2169
Rp2170
(dp2171
btp2172
Rp2173
(dp2174
bg155
tp2175
Rp2176
(dp2177
bg10
(g109
g53
g144
tp2178
Rp2179
(dp2180
btp2181
Rp2182
(dp2183
bg578
tp2184
Rp2185
(dp2186
bg10
(g242
g9
(g10
(g120
g166
tp2187
Rp2188
(dp2189
bg10
(g53
g132
g97
tp2190
Rp2191
(dp2192
btp2193
Rp2194
(dp2195
bg593
tp2196
Rp2197
(dp2198
bg10
(g242
g120
g155
g109
tp2199
Rp2200
(dp2201
bg10
(g242
g109
g132
g578
tp2202
Rp2203
(dp2204
btp2205
Rp2206
(dp2207
bg633
tp2208
Rp2209
(dp2210
bg9
(g10
(g11
((I0
S'1L'
p2211
I-2
I1
tp2212
tp2213
Rp2214
(dp2215
g17
I53
sbg9
(g10
(g9
(g10
(g1689
g155
tp2216
Rp2217
(dp2218
bg10
(g120
g109
g144
tp2219
Rp2220
(dp2221
btp2222
Rp2223
(dp2224
bg578
tp2225
Rp2226
(dp2227
bg10
(g9
(g10
(g242
g120
g132
tp2228
Rp2229
(dp2230
bg10
(g166
g53
g97
tp2231
Rp2232
(dp2233
btp2234
Rp2235
(dp2236
bg144
tp2237
Rp2238
(dp2239
bg10
(g242
g9
(g10
(g166
g53
tp2240
Rp2241
(dp2242
bg10
(g242
g120
g132
g97
tp2243
Rp2244
(dp2245
btp2246
Rp2247
(dp2248
bg593
tp2249
Rp2250
(dp2251
bg10
(g242
g155
g109
g53
tp2252
Rp2253
(dp2254
btp2255
Rp2256
(dp2257
bg1046
(g9
(g10
(g9
(g10
(g9
(g10
(g53
g132
tp2258
Rp2259
(dp2260
bg10
(g120
g166
g97
tp2261
Rp2262
(dp2263
btp2264
Rp2265
(dp2266
bg155
tp2267
Rp2268
(dp2269
bg10
(g120
g109
g144
tp2270
Rp2271
(dp2272
btp2273
Rp2274
(dp2275
bg578
tp2276
Rp2277
(dp2278
bg10
(g9
(g10
(g242
g120
g132
tp2279
Rp2280
(dp2281
bg10
(g166
g53
g97
tp2282
Rp2283
(dp2284
btp2285
Rp2286
(dp2287
bg144
tp2288
Rp2289
(dp2290
bg10
(g242
g9
(g10
(g166
g53
tp2291
Rp2292
(dp2293
bg10
(g242
g120
g132
g97
tp2294
Rp2295
(dp2296
btp2297
Rp2298
(dp2299
bg593
tp2300
Rp2301
(dp2302
bg10
(g242
g155
g109
g53
tp2303
Rp2304
(dp2305
btp2306
Rp2307
(dp2308
btp2309
Rp2310
(dp2311
btp2312
Rp2313
(dp2314
bg10
(g11
((I1
S'1L'
p2315
I-1
I1
tp2316
tp2317
Rp2318
(dp2319
g17
I53
sbg9
(g529
g10
(g858
g144
tp2320
Rp2321
(dp2322
bg10
(g9
(g10
(g242
g144
g97
tp2323
Rp2324
(dp2325
bg10
(g166
g155
g109
tp2326
Rp2327
(dp2328
btp2329
Rp2330
(dp2331
bg593
tp2332
Rp2333
(dp2334
bg10
(g242
g9
(g10
(g1249
g155
tp2335
Rp2336
(dp2337
bg10
(g109
g53
g144
tp2338
Rp2339
(dp2340
btp2341
Rp2342
(dp2343
bg578
tp2344
Rp2345
(dp2346
bg10
(g242
g9
(g10
(g120
g166
tp2347
Rp2348
(dp2349
bg10
(g53
g132
g97
tp2350
Rp2351
(dp2352
btp2353
Rp2354
(dp2355
bg593
tp2356
Rp2357
(dp2358
bg10
(g242
g120
g155
g109
tp2359
Rp2360
(dp2361
bg10
(g242
g109
g132
g578
tp2362
Rp2363
(dp2364
btp2365
Rp2366
(dp2367
bg1142
(g2310
g1146
(g22
g529
tp2368
Rp2369
(dp2370
btp2371
Rp2372
(dp2373
btp2374
Rp2375
(dp2376
btp2377
Rp2378
(dp2379
btp2380
Rp2381
(dp2382
bag10
(g242
g2209
g9
(g10
(g11
((I0
S'1L'
p2383
I-2
I1
tp2384
tp2385
Rp2386
(dp2387
g17
I53
sbg9
(g10
(g242
g9
(g10
(g109
g144
tp2388
Rp2389
(dp2390
bg10
(g166
g155
g97
tp2391
Rp2392
(dp2393
btp2394
Rp2395
(dp2396
bg593
tp2397
Rp2398
(dp2399
bg10
(g9
(g10
(g144
g97
tp2400
Rp2401
(dp2402
bg10
(g242
g166
g155
g109
tp2403
Rp2404
(dp2405
btp2406
Rp2407
(dp2408
bg53
g578
tp2409
Rp2410
(dp2411
bg1180
g1183
g1198
g10
(g242
g593
g109
g53
g132
tp2412
Rp2413
(dp2414
btp2415
Rp2416
(dp2417
bg2310
tp2418
Rp2419
(dp2420
bg10
(g11
((I1
S'1L'
p2421
I-1
I1
tp2422
tp2423
Rp2424
(dp2425
g17
I53
sbg9
(g242
g10
(g1258
g578
tp2426
Rp2427
(dp2428
bg10
(g795
g593
tp2429
Rp2430
(dp2431
bg10
(g9
(g10
(g144
g97
tp2432
Rp2433
(dp2434
bg10
(g242
g166
g155
g109
tp2435
Rp2436
(dp2437
btp2438
Rp2439
(dp2440
bg593
tp2441
Rp2442
(dp2443
bg10
(g242
g2149
g144
tp2444
Rp2445
(dp2446
bg10
(g120
g155
g109
tp2447
Rp2448
(dp2449
bg10
(g109
g132
g578
tp2450
Rp2451
(dp2452
btp2453
Rp2454
(dp2455
bg1142
(g2310
g1146
(g65
g529
tp2456
Rp2457
(dp2458
btp2459
Rp2460
(dp2461
btp2462
Rp2463
(dp2464
btp2465
Rp2466
(dp2467
btp2468
Rp2469
(dp2470
bag10
(g242
g2209
g9
(g10
(g11
((I0
S'1L'
p2471
I-2
I1
tp2472
tp2473
Rp2474
(dp2475
g17
I53
sbg2416
g2310
tp2476
Rp2477
(dp2478
bg10
(g11
((I1
S'1L'
p2479
I-1
I1
tp2480
tp2481
Rp2482
(dp2483
g17
I53
sbg9
(g242
g10
(g9
(g10
(g1249
g155
tp2484
Rp2485
(dp2486
bg10
(g109
g53
g144
tp2487
Rp2488
(dp2489
btp2490
Rp2491
(dp2492
bg578
tp2493
Rp2494
(dp2495
bg10
(g9
(g10
(g120
g166
tp2496
Rp2497
(dp2498
bg10
(g53
g132
g97
tp2499
Rp2500
(dp2501
btp2502
Rp2503
(dp2504
bg892
tp2505
Rp2506
(dp2507
bg10
(g9
(g10
(g144
g97
tp2508
Rp2509
(dp2510
bg10
(g242
g166
g155
g109
tp2511
Rp2512
(dp2513
btp2514
Rp2515
(dp2516
bg593
tp2517
Rp2518
(dp2519
bg10
(g242
g2149
g144
tp2520
Rp2521
(dp2522
bg10
(g120
g155
g109
tp2523
Rp2524
(dp2525
bg10
(g109
g132
g578
tp2526
Rp2527
(dp2528
btp2529
Rp2530
(dp2531
bg1142
(g2310
g1146
(g86
g529
tp2532
Rp2533
(dp2534
btp2535
Rp2536
(dp2537
btp2538
Rp2539
(dp2540
btp2541
Rp2542
(dp2543
btp2544
Rp2545
(dp2546
bag10
(g2209
g9
(g10
(g11
((I0
S'1L'
p2547
I-2
I1
tp2548
tp2549
Rp2550
(dp2551
g17
I53
sbg9
(g10
(g9
(g10
(g242
g120
g132
tp2552
Rp2553
(dp2554
bg10
(g166
g53
g97
tp2555
Rp2556
(dp2557
btp2558
Rp2559
(dp2560
bg593
tp2561
Rp2562
(dp2563
bg10
(g242
g9
(g10
(g166
g53
tp2564
Rp2565
(dp2566
bg10
(g242
g120
g132
g97
tp2567
Rp2568
(dp2569
btp2570
Rp2571
(dp2572
bg144
tp2573
Rp2574
(dp2575
bg10
(g166
g109
g578
tp2576
Rp2577
(dp2578
bg10
(g242
g9
(g10
(g120
g166
tp2579
Rp2580
(dp2581
bg10
(g53
g132
g97
tp2582
Rp2583
(dp2584
btp2585
Rp2586
(dp2587
bg155
g578
tp2588
Rp2589
(dp2590
bg10
(g155
g593
g109
g132
tp2591
Rp2592
(dp2593
btp2594
Rp2595
(dp2596
bg2310
tp2597
Rp2598
(dp2599
bg10
(g11
((I1
S'1L'
p2600
I-1
I1
tp2601
tp2602
Rp2603
(dp2604
g17
I53
sbg9
(g529
g10
(g858
g144
tp2605
Rp2606
(dp2607
bg10
(g1276
g593
tp2608
Rp2609
(dp2610
bg10
(g242
g9
(g10
(g1249
g155
tp2611
Rp2612
(dp2613
bg10
(g109
g53
g144
tp2614
Rp2615
(dp2616
btp2617
Rp2618
(dp2619
bg578
tp2620
Rp2621
(dp2622
bg10
(g242
g9
(g10
(g120
g166
tp2623
Rp2624
(dp2625
bg2583
tp2626
Rp2627
(dp2628
bg892
tp2629
Rp2630
(dp2631
bg10
(g242
g120
g155
g109
tp2632
Rp2633
(dp2634
bg10
(g242
g109
g132
g578
tp2635
Rp2636
(dp2637
btp2638
Rp2639
(dp2640
bg1142
(g2310
g1146
(g124
g529
tp2641
Rp2642
(dp2643
btp2644
Rp2645
(dp2646
btp2647
Rp2648
(dp2649
btp2650
Rp2651
(dp2652
btp2653
Rp2654
(dp2655
bag10
(g242
g2209
g9
(g10
(g11
((I0
S'1L'
p2656
I-2
I1
tp2657
tp2658
Rp2659
(dp2660
g17
I53
sbg9
(g10
(g9
(g10
(g2286
g144
tp2661
Rp2662
(dp2663
bg10
(g242
g155
g109
g53
tp2664
Rp2665
(dp2666
btp2667
Rp2668
(dp2669
bg578
tp2670
Rp2671
(dp2672
bg10
(g2265
g155
tp2673
Rp2674
(dp2675
bg10
(g242
g9
(g10
(g155
g97
tp2676
Rp2677
(dp2678
bg10
(g166
g109
g144
tp2679
Rp2680
(dp2681
btp2682
Rp2683
(dp2684
bg593
tp2685
Rp2686
(dp2687
bg10
(g120
g109
g144
tp2688
Rp2689
(dp2690
btp2691
Rp2692
(dp2693
bg2310
tp2694
Rp2695
(dp2696
bg10
(g11
((I1
S'1L'
p2697
I-1
I1
tp2698
tp2699
Rp2700
(dp2701
g17
I53
sbg9
(g242
g10
(g9
(g10
(g1249
g155
tp2702
Rp2703
(dp2704
bg10
(g109
g53
g144
tp2705
Rp2706
(dp2707
btp2708
Rp2709
(dp2710
bg578
tp2711
Rp2712
(dp2713
bg10
(g9
(g10
(g120
g166
tp2714
Rp2715
(dp2716
bg10
(g53
g132
g97
tp2717
Rp2718
(dp2719
btp2720
Rp2721
(dp2722
bg892
tp2723
Rp2724
(dp2725
bg10
(g9
(g10
(g144
g97
tp2726
Rp2727
(dp2728
bg10
(g242
g166
g155
g109
tp2729
Rp2730
(dp2731
btp2732
Rp2733
(dp2734
bg593
tp2735
Rp2736
(dp2737
bg10
(g242
g2149
g144
tp2738
Rp2739
(dp2740
bg10
(g120
g155
g109
tp2741
Rp2742
(dp2743
bg10
(g109
g132
g578
tp2744
Rp2745
(dp2746
btp2747
Rp2748
(dp2749
bg1142
(g2310
g1146
(g136
g529
tp2750
Rp2751
(dp2752
btp2753
Rp2754
(dp2755
btp2756
Rp2757
(dp2758
btp2759
Rp2760
(dp2761
btp2762
Rp2763
(dp2764
bag10
(g2209
g9
(g10
(g11
((I0
S'1L'
p2765
I-2
I1
tp2766
tp2767
Rp2768
(dp2769
g17
I53
sbg9
(g10
(g9
(g10
(g1249
g155
tp2770
Rp2771
(dp2772
bg10
(g109
g53
g144
tp2773
Rp2774
(dp2775
btp2776
Rp2777
(dp2778
bg892
tp2779
Rp2780
(dp2781
bg10
(g242
g9
(g10
(g120
g166
tp2782
Rp2783
(dp2784
bg10
(g53
g132
g97
tp2785
Rp2786
(dp2787
btp2788
Rp2789
(dp2790
bg1072
tp2791
Rp2792
(dp2793
bg10
(g242
g9
(g10
(g144
g97
tp2794
Rp2795
(dp2796
bg10
(g242
g166
g155
g109
tp2797
Rp2798
(dp2799
btp2800
Rp2801
(dp2802
bg1072
tp2803
Rp2804
(dp2805
bg10
(g593
g109
g132
tp2806
Rp2807
(dp2808
btp2809
Rp2810
(dp2811
bg2310
tp2812
Rp2813
(dp2814
bg10
(g11
((I1
S'1L'
p2815
I-1
I1
tp2816
tp2817
Rp2818
(dp2819
g17
I53
sbg9
(g529
g10
(g858
g144
tp2820
Rp2821
(dp2822
bg10
(g1276
g593
tp2823
Rp2824
(dp2825
bg10
(g242
g9
(g10
(g1249
g155
tp2826
Rp2827
(dp2828
bg10
(g109
g53
g144
tp2829
Rp2830
(dp2831
btp2832
Rp2833
(dp2834
bg578
tp2835
Rp2836
(dp2837
bg10
(g242
g9
(g10
(g120
g166
tp2838
Rp2839
(dp2840
bg2786
tp2841
Rp2842
(dp2843
bg892
tp2844
Rp2845
(dp2846
bg10
(g242
g120
g155
g109
tp2847
Rp2848
(dp2849
bg10
(g242
g109
g132
g578
tp2850
Rp2851
(dp2852
btp2853
Rp2854
(dp2855
bg1142
(g2310
g1146
(g551
g529
tp2856
Rp2857
(dp2858
btp2859
Rp2860
(dp2861
btp2862
Rp2863
(dp2864
btp2865
Rp2866
(dp2867
btp2868
Rp2869
(dp2870
basS'cols'
p2871
I6
sb.