ccopy_reg
_reconstructor
p0
(csympy.matrices.dense
MutableDenseMatrix
p1
c__builtin__
object
p2
Ntp3
Rp4
(dp5
S'rows'
p6
I6
sS'_mat'
p7
(lp8
csympy.core.add
Add
p9
(csympy.core.mul
Mul
p10
(csympy.core.numbers
Float
p11
((I0
S'1bf141205bc019L'
p12
I-56
I53
tp13
tp14
Rp15
(dp16
S'_prec'
p17
I53
sbcsympy.functions.elementary.trigonometric
cos
p18
(csympy.core.symbol
Symbol
p19
(S'q1'
p20
tp21
Rp22
(dp23
S'_assumptions'
p24
g0
(csympy.core.assumptions
StdFactKB
p25
c__builtin__
dict
p26
(dp27
S'real'
p28
NsS'irrational'
p29
NsS'antihermitian'
p30
NsS'nonpositive'
p31
NsS'algebraic'
p32
NsS'hermitian'
p33
NsS'infinite'
p34
NsS'integer'
p35
NsS'imaginary'
p36
NsS'odd'
p37
NsS'even'
p38
NsS'commutative'
p39
I01
sS'zero'
p40
NsS'positive'
p41
NsS'negative'
p42
NsS'nonnegative'
p43
NsS'complex'
p44
NsS'rational'
p45
NsS'finite'
p46
Nstp47
Rp48
(dp49
S'_generator'
p50
(dp51
sbsbtp52
Rp53
(dp54
btp55
Rp56
(dp57
bg10
(g11
((I0
S'ab50b0f27bb3L'
p58
I-50
I48
tp59
tp60
Rp61
(dp62
g17
I53
sbg53
g18
(g19
(S'q5'
p63
tp64
Rp65
(dp66
g24
g0
(g25
g26
(dp67
g28
NsS'polar'
p68
Nsg29
Nsg30
Nsg31
Nsg32
Nsg40
Nsg34
Nsg35
Nsg33
Nsg37
Nsg36
Nsg38
Nsg39
I01
sg41
Nsg42
Nsg43
Nsg44
Nsg45
Nsg46
Nstp69
Rp70
(dp71
g50
(dp72
sbsbtp73
Rp74
(dp75
btp76
Rp77
(dp78
bg10
(g11
((I0
S'191a9fbe76c8b3L'
p79
I-54
I53
tp80
tp81
Rp82
(dp83
g17
I53
sbg18
(g9
(g19
(S'q2'
p84
tp85
Rp86
(dp87
g24
g0
(g25
g26
(dp88
g28
Nsg68
Nsg29
Nsg30
Nsg31
Nsg32
Nsg33
Nsg34
Nsg35
Nsg36
Nsg37
Nsg38
Nsg39
I01
sg40
Nsg41
Nsg42
Nsg43
Nsg44
Nsg45
Nsg46
Nstp89
Rp90
(dp91
g50
(dp92
sbsbg19
(S'q3'
p93
tp94
Rp95
(dp96
g24
g0
(g25
g26
(dp97
g28
Nsg68
Nsg29
Nsg30
Nsg31
Nsg32
Nsg33
Nsg34
Nsg35
Nsg36
Nsg37
Nsg38
Nsg39
I01
sg40
Nsg41
Nsg42
Nsg43
Nsg44
Nsg45
Nsg46
Nstp98
Rp99
(dp100
g50
(dp101
sbsbtp102
Rp103
(dp104
btp105
Rp106
(dp107
bcsympy.functions.elementary.trigonometric
sin
p108
(g22
tp109
Rp110
(dp111
btp112
Rp113
(dp114
bg10
(g11
((I0
S'1b333333333333L'
p115
I-54
I53
tp116
tp117
Rp118
(dp119
g17
I53
sbg18
(g86
tp120
Rp121
(dp122
bg110
tp123
Rp124
(dp125
bg10
(g11
((I1
S'183afb7e90ff97L'
p126
I-56
I53
tp127
tp128
Rp129
(dp130
g17
I53
sbg110
g108
(g9
(g86
g95
g19
(S'q4'
p131
tp132
Rp133
(dp134
g24
g0
(g25
g26
(dp135
g28
Nsg68
Nsg29
Nsg30
Nsg31
Nsg32
Nsg33
Nsg34
Nsg35
Nsg36
Nsg37
Nsg38
Nsg39
I01
sg40
Nsg41
Nsg42
Nsg43
Nsg44
Nsg45
Nsg46
Nstp136
Rp137
(dp138
g50
(dp139
sbsbtp140
Rp141
(dp142
btp143
Rp144
(dp145
btp146
Rp147
(dp148
bg10
(g11
((I0
S'ab50b0f27bb3L'
p149
I-50
I48
tp150
tp151
Rp152
(dp153
g17
I53
sbg18
(g141
tp154
Rp155
(dp156
bg110
g108
(g65
tp157
Rp158
(dp159
btp160
Rp161
(dp162
btp163
Rp164
(dp165
bag10
(g9
(g10
(g11
((I0
S'183afb7e90ff97L'
p166
I-56
I53
tp167
tp168
Rp169
(dp170
g17
I53
sbg155
tp171
Rp172
(dp173
bg10
(g11
((I0
S'191a9fbe76c8b3L'
p174
I-54
I53
tp175
tp176
Rp177
(dp178
g17
I53
sbg108
(g103
tp179
Rp180
(dp181
btp182
Rp183
(dp184
bg10
(g11
((I0
S'1b333333333333L'
p185
I-54
I53
tp186
tp187
Rp188
(dp189
g17
I53
sbg108
(g86
tp190
Rp191
(dp192
btp193
Rp194
(dp195
bg10
(g11
((I0
S'ab50b0f27bb3L'
p196
I-50
I48
tp197
tp198
Rp199
(dp200
g17
I53
sbg158
g144
tp201
Rp202
(dp203
btp204
Rp205
(dp206
bg53
tp207
Rp208
(dp209
bag10
(g9
(g172
g183
g10
(g199
g158
g144
tp210
Rp211
(dp212
btp213
Rp214
(dp215
bg53
tp216
Rp217
(dp218
bag10
(g9
(g172
g10
(g199
g158
g144
tp219
Rp220
(dp221
btp222
Rp223
(dp224
bg53
tp225
Rp226
(dp227
bag9
(g10
(g11
((I1
S'ab50b0f27bb3L'
p228
I-50
I48
tp229
tp230
Rp231
(dp232
g17
I53
sbg110
g158
tp233
Rp234
(dp235
bg10
(g11
((I1
S'ab50b0f27bb3L'
p236
I-50
I48
tp237
tp238
Rp239
(dp240
g17
I53
sbg53
g74
g155
tp241
Rp242
(dp243
btp244
Rp245
(dp246
bacsympy.core.numbers
Zero
p247
(I0
tp248
Rp249
(dp250
bag9
(g10
(g11
((I0
S'1bf141205bc019L'
p251
I-56
I53
tp252
tp253
Rp254
(dp255
g17
I53
sbg110
tp256
Rp257
(dp258
bg10
(g11
((I0
S'ab50b0f27bb3L'
p259
I-50
I48
tp260
tp261
Rp262
(dp263
g17
I53
sbg74
g110
tp264
Rp265
(dp266
bg10
(g11
((I0
S'183afb7e90ff97L'
p267
I-56
I53
tp268
tp269
Rp270
(dp271
g17
I53
sbg53
g144
tp272
Rp273
(dp274
bg10
(g11
((I1
S'191a9fbe76c8b3L'
p275
I-54
I53
tp276
tp277
Rp278
(dp279
g17
I53
sbg53
g106
tp280
Rp281
(dp282
bg10
(g11
((I1
S'1b333333333333L'
p283
I-54
I53
tp284
tp285
Rp286
(dp287
g17
I53
sbg53
g121
tp288
Rp289
(dp290
bg10
(g11
((I1
S'ab50b0f27bb3L'
p291
I-50
I48
tp292
tp293
Rp294
(dp295
g17
I53
sbg53
g155
g158
tp296
Rp297
(dp298
btp299
Rp300
(dp301
bag10
(g9
(g10
(g11
((I0
S'183afb7e90ff97L'
p302
I-56
I53
tp303
tp304
Rp305
(dp306
g17
I53
sbg155
tp307
Rp308
(dp309
bg10
(g11
((I0
S'191a9fbe76c8b3L'
p310
I-54
I53
tp311
tp312
Rp313
(dp314
g17
I53
sbg180
tp315
Rp316
(dp317
bg10
(g11
((I0
S'1b333333333333L'
p318
I-54
I53
tp319
tp320
Rp321
(dp322
g17
I53
sbg191
tp323
Rp324
(dp325
bg10
(g11
((I0
S'ab50b0f27bb3L'
p326
I-50
I48
tp327
tp328
Rp329
(dp330
g17
I53
sbg158
g144
tp331
Rp332
(dp333
btp334
Rp335
(dp336
bg110
tp337
Rp338
(dp339
bag10
(g9
(g308
g316
g10
(g329
g158
g144
tp340
Rp341
(dp342
btp343
Rp344
(dp345
bg110
tp346
Rp347
(dp348
bag10
(g9
(g308
g10
(g329
g158
g144
tp349
Rp350
(dp351
btp352
Rp353
(dp354
bg110
tp355
Rp356
(dp357
bag9
(g10
(g11
((I0
S'ab50b0f27bb3L'
p358
I-50
I48
tp359
tp360
Rp361
(dp362
g17
I53
sbg53
g158
tp363
Rp364
(dp365
bg10
(g11
((I1
S'ab50b0f27bb3L'
p366
I-50
I48
tp367
tp368
Rp369
(dp370
g17
I53
sbg74
g155
g110
tp371
Rp372
(dp373
btp374
Rp375
(dp376
bag249
ag249
ag9
(g10
(g11
((I0
S'183afb7e90ff97L'
p377
I-56
I53
tp378
tp379
Rp380
(dp381
g17
I53
sbg144
tp382
Rp383
(dp384
bg10
(g11
((I1
S'191a9fbe76c8b3L'
p385
I-54
I53
tp386
tp387
Rp388
(dp389
g17
I53
sbg106
tp390
Rp391
(dp392
bg10
(g11
((I1
S'1b333333333333L'
p393
I-54
I53
tp394
tp395
Rp396
(dp397
g17
I53
sbg121
tp398
Rp399
(dp400
bg10
(g11
((I1
S'ab50b0f27bb3L'
p401
I-50
I48
tp402
tp403
Rp404
(dp405
g17
I53
sbg155
g158
tp406
Rp407
(dp408
btp409
Rp410
(dp411
bag9
(g383
g391
g407
tp412
Rp413
(dp414
bag9
(g383
g407
tp415
Rp416
(dp417
bag10
(g11
((I1
S'ab50b0f27bb3L'
p418
I-50
I48
tp419
tp420
Rp421
(dp422
g17
I53
sbg74
g144
tp423
Rp424
(dp425
bag249
ag249
ag10
(csympy.core.power
Pow
p426
(g9
(g426
(g155
csympy.core.numbers
Integer
p427
(I2
tp428
Rp429
(dp430
btp431
Rp432
(dp433
bg10
(g426
(g74
g429
tp434
Rp435
(dp436
bg426
(g144
g429
tp437
Rp438
(dp439
btp440
Rp441
(dp442
btp443
Rp444
(dp445
bcsympy.core.numbers
NegativeOne
p446
(I-1
tp447
Rp448
(dp449
btp450
Rp451
(dp452
bg74
tp453
Rp454
(dp455
bag10
(g451
g74
tp456
Rp457
(dp458
bag10
(g451
g74
tp459
Rp460
(dp461
bag10
(g448
g451
g155
g158
g144
tp462
Rp463
(dp464
bacsympy.core.numbers
One
p465
(I1
tp466
Rp467
(dp468
bag249
ag10
(g429
g426
(g429
csympy.core.numbers
Half
p469
(I1
I2
tp470
Rp471
(dp472
btp473
Rp474
(dp475
bg426
(g9
(g427
(I6
tp476
Rp477
(dp478
bg10
(g448
g18
(g9
(g10
(g427
(I-2
tp479
Rp480
(dp481
bg65
tp482
Rp483
(dp484
bg10
(g429
g86
tp485
Rp486
(dp487
bg10
(g429
g95
tp488
Rp489
(dp490
bg10
(g429
g133
tp491
Rp492
(dp493
btp494
Rp495
(dp496
btp497
Rp498
(dp499
btp500
Rp501
(dp502
bg10
(g448
g18
(g9
(g486
g489
g492
g10
(g429
g65
tp503
Rp504
(dp505
btp506
Rp507
(dp508
btp509
Rp510
(dp511
btp512
Rp513
(dp514
bg10
(g429
g18
(g504
tp515
Rp516
(dp517
btp518
Rp519
(dp520
bg10
(g429
g18
(g9
(g486
g489
g492
tp521
Rp522
(dp523
btp524
Rp525
(dp526
btp527
Rp528
(dp529
btp530
Rp531
(dp532
bcsympy.core.numbers
Rational
p533
(I-1
I2
tp534
Rp535
(dp536
btp537
Rp538
(dp539
bg155
g158
tp540
Rp541
(dp542
bag10
(g429
g474
g538
g155
g158
tp543
Rp544
(dp545
bag10
(g429
g474
g538
g155
g158
tp546
Rp547
(dp548
bag10
(g429
g474
g538
g74
g144
tp549
Rp550
(dp551
bag249
ag467
ag10
(g426
(g9
(g426
(g74
g429
tp552
Rp553
(dp554
bg10
(g426
(g155
g429
tp555
Rp556
(dp557
bg426
(g158
g429
tp558
Rp559
(dp560
btp561
Rp562
(dp563
btp564
Rp565
(dp566
bg448
tp567
Rp568
(dp569
bg74
g158
g144
tp570
Rp571
(dp572
bag10
(g568
g74
g158
g144
tp573
Rp574
(dp575
bag10
(g568
g74
g158
g144
tp576
Rp577
(dp578
bag10
(g448
g568
g155
tp579
Rp580
(dp581
bag249
asS'cols'
p582
I6
sb.