ccopy_reg
_reconstructor
p0
(csympy.matrices.dense
MutableDenseMatrix
p1
c__builtin__
object
p2
Ntp3
Rp4
(dp5
S'rows'
p6
I6
sS'_mat'
p7
(lp8
csympy.core.add
Add
p9
(csympy.core.mul
Mul
p10
(csympy.core.numbers
Float
p11
((I1
S'1bf141205bc019L'
p12
I-56
I53
tp13
tp14
Rp15
(dp16
S'_prec'
p17
I53
sbcsympy.functions.elementary.trigonometric
cos
p18
(csympy.core.symbol
Symbol
p19
(S'q1'
p20
tp21
Rp22
(dp23
S'_assumptions'
p24
g0
(csympy.core.assumptions
StdFactKB
p25
c__builtin__
dict
p26
(dp27
S'real'
p28
NsS'irrational'
p29
NsS'antihermitian'
p30
NsS'nonpositive'
p31
NsS'algebraic'
p32
NsS'hermitian'
p33
NsS'infinite'
p34
NsS'integer'
p35
NsS'imaginary'
p36
NsS'odd'
p37
NsS'even'
p38
NsS'commutative'
p39
I01
sS'zero'
p40
NsS'positive'
p41
NsS'negative'
p42
NsS'nonnegative'
p43
NsS'complex'
p44
NsS'rational'
p45
NsS'finite'
p46
Nstp47
Rp48
(dp49
S'_generator'
p50
(dp51
sbsbtp52
Rp53
(dp54
btp55
Rp56
(dp57
bg10
(g11
((I0
S'183afb7e90ff97L'
p58
I-56
I53
tp59
tp60
Rp61
(dp62
g17
I53
sbcsympy.functions.elementary.trigonometric
sin
p63
(g22
tp64
Rp65
(dp66
bg63
(g9
(g19
(S'q2'
p67
tp68
Rp69
(dp70
g24
g0
(g25
g26
(dp71
g28
NsS'polar'
p72
Nsg29
Nsg30
Nsg31
Nsg32
Nsg33
Nsg34
Nsg35
Nsg36
Nsg37
Nsg38
Nsg39
I01
sg40
Nsg41
Nsg42
Nsg43
Nsg44
Nsg45
Nsg46
Nstp73
Rp74
(dp75
g50
(dp76
sbsbg19
(S'q3'
p77
tp78
Rp79
(dp80
g24
g0
(g25
g26
(dp81
g28
Nsg72
Nsg29
Nsg30
Nsg31
Nsg32
Nsg40
Nsg34
Nsg35
Nsg33
Nsg37
Nsg36
Nsg38
Nsg39
I01
sg41
Nsg42
Nsg43
Nsg44
Nsg45
Nsg46
Nstp82
Rp83
(dp84
g50
(dp85
sbsbg19
(S'q4'
p86
tp87
Rp88
(dp89
g24
g0
(g25
g26
(dp90
g28
Nsg72
Nsg29
Nsg30
Nsg31
Nsg32
Nsg40
Nsg34
Nsg35
Nsg33
Nsg37
Nsg36
Nsg38
Nsg39
I01
sg41
Nsg42
Nsg43
Nsg44
Nsg45
Nsg46
Nstp91
Rp92
(dp93
g50
(dp94
sbsbtp95
Rp96
(dp97
btp98
Rp99
(dp100
btp101
Rp102
(dp103
bg10
(g11
((I1
S'ab50b0f27bb3L'
p104
I-50
I48
tp105
tp106
Rp107
(dp108
g17
I53
sbg53
g18
(g19
(S'q5'
p109
tp110
Rp111
(dp112
g24
g0
(g25
g26
(dp113
g28
Nsg72
Nsg29
Nsg30
Nsg31
Nsg32
Nsg40
Nsg34
Nsg35
Nsg33
Nsg37
Nsg36
Nsg38
Nsg39
I01
sg41
Nsg42
Nsg43
Nsg44
Nsg45
Nsg46
Nstp114
Rp115
(dp116
g50
(dp117
sbsbtp118
Rp119
(dp120
btp121
Rp122
(dp123
bg10
(g11
((I1
S'191a9fbe76c8b3L'
p124
I-54
I53
tp125
tp126
Rp127
(dp128
g17
I53
sbg18
(g9
(g69
g79
tp129
Rp130
(dp131
btp132
Rp133
(dp134
bg65
tp135
Rp136
(dp137
bg10
(g11
((I1
S'1b333333333333L'
p138
I-54
I53
tp139
tp140
Rp141
(dp142
g17
I53
sbg18
(g69
tp143
Rp144
(dp145
bg65
tp146
Rp147
(dp148
bg10
(g11
((I1
S'ab50b0f27bb3L'
p149
I-50
I48
tp150
tp151
Rp152
(dp153
g17
I53
sbg18
(g96
tp154
Rp155
(dp156
bg65
g63
(g111
tp157
Rp158
(dp159
btp160
Rp161
(dp162
btp163
Rp164
(dp165
bag10
(csympy.core.numbers
NegativeOne
p166
(I-1
tp167
Rp168
(dp169
bg9
(g10
(g11
((I0
S'183afb7e90ff97L'
p170
I-56
I53
tp171
tp172
Rp173
(dp174
g17
I53
sbg155
tp175
Rp176
(dp177
bg10
(g11
((I0
S'191a9fbe76c8b3L'
p178
I-54
I53
tp179
tp180
Rp181
(dp182
g17
I53
sbg63
(g130
tp183
Rp184
(dp185
btp186
Rp187
(dp188
bg10
(g11
((I0
S'1b333333333333L'
p189
I-54
I53
tp190
tp191
Rp192
(dp193
g17
I53
sbg63
(g69
tp194
Rp195
(dp196
btp197
Rp198
(dp199
bg10
(g11
((I0
S'ab50b0f27bb3L'
p200
I-50
I48
tp201
tp202
Rp203
(dp204
g17
I53
sbg158
g99
tp205
Rp206
(dp207
btp208
Rp209
(dp210
bg53
tp211
Rp212
(dp213
bag10
(g168
g9
(g10
(g11
((I0
S'c1d7dbf487fcbL'
p214
I-55
I52
tp215
tp216
Rp217
(dp218
g17
I53
sbg155
tp219
Rp220
(dp221
bg187
g10
(g203
g158
g99
tp222
Rp223
(dp224
btp225
Rp226
(dp227
bg53
tp228
Rp229
(dp230
bag10
(g168
g9
(g176
g10
(g203
g158
g99
tp231
Rp232
(dp233
btp234
Rp235
(dp236
bg53
tp237
Rp238
(dp239
bag9
(g10
(g11
((I0
S'ab50b0f27bb3L'
p240
I-50
I48
tp241
tp242
Rp243
(dp244
g17
I53
sbg65
g158
tp245
Rp246
(dp247
bg10
(g11
((I0
S'ab50b0f27bb3L'
p248
I-50
I48
tp249
tp250
Rp251
(dp252
g17
I53
sbg53
g119
g155
tp253
Rp254
(dp255
btp256
Rp257
(dp258
bacsympy.core.numbers
Zero
p259
(I0
tp260
Rp261
(dp262
bag9
(g10
(g11
((I1
S'1bf141205bc019L'
p263
I-56
I53
tp264
tp265
Rp266
(dp267
g17
I53
sbg65
tp268
Rp269
(dp270
bg10
(g11
((I0
S'191a9fbe76c8b3L'
p271
I-54
I53
tp272
tp273
Rp274
(dp275
g17
I53
sbg53
g133
tp276
Rp277
(dp278
bg10
(g11
((I0
S'1b333333333333L'
p279
I-54
I53
tp280
tp281
Rp282
(dp283
g17
I53
sbg53
g144
tp284
Rp285
(dp286
bg10
(g11
((I1
S'ab50b0f27bb3L'
p287
I-50
I48
tp288
tp289
Rp290
(dp291
g17
I53
sbg119
g65
tp292
Rp293
(dp294
bg10
(g11
((I1
S'183afb7e90ff97L'
p295
I-56
I53
tp296
tp297
Rp298
(dp299
g17
I53
sbg53
g99
tp300
Rp301
(dp302
bg10
(g11
((I0
S'ab50b0f27bb3L'
p303
I-50
I48
tp304
tp305
Rp306
(dp307
g17
I53
sbg53
g155
g158
tp308
Rp309
(dp310
btp311
Rp312
(dp313
bag10
(g168
g9
(g10
(g11
((I0
S'183afb7e90ff97L'
p314
I-56
I53
tp315
tp316
Rp317
(dp318
g17
I53
sbg155
tp319
Rp320
(dp321
bg10
(g11
((I0
S'191a9fbe76c8b3L'
p322
I-54
I53
tp323
tp324
Rp325
(dp326
g17
I53
sbg184
tp327
Rp328
(dp329
bg10
(g11
((I0
S'1b333333333333L'
p330
I-54
I53
tp331
tp332
Rp333
(dp334
g17
I53
sbg195
tp335
Rp336
(dp337
bg10
(g11
((I0
S'ab50b0f27bb3L'
p338
I-50
I48
tp339
tp340
Rp341
(dp342
g17
I53
sbg158
g99
tp343
Rp344
(dp345
btp346
Rp347
(dp348
bg65
tp349
Rp350
(dp351
bag10
(g168
g9
(g10
(g11
((I0
S'c1d7dbf487fcbL'
p352
I-55
I52
tp353
tp354
Rp355
(dp356
g17
I53
sbg155
tp357
Rp358
(dp359
bg328
g10
(g341
g158
g99
tp360
Rp361
(dp362
btp363
Rp364
(dp365
bg65
tp366
Rp367
(dp368
bag10
(g168
g9
(g320
g10
(g341
g158
g99
tp369
Rp370
(dp371
btp372
Rp373
(dp374
bg65
tp375
Rp376
(dp377
bag9
(g10
(g11
((I1
S'ab50b0f27bb3L'
p378
I-50
I48
tp379
tp380
Rp381
(dp382
g17
I53
sbg53
g158
tp383
Rp384
(dp385
bg10
(g11
((I0
S'ab50b0f27bb3L'
p386
I-50
I48
tp387
tp388
Rp389
(dp390
g17
I53
sbg119
g155
g65
tp391
Rp392
(dp393
btp394
Rp395
(dp396
bag261
ag261
ag9
(g10
(g11
((I0
S'183afb7e90ff97L'
p397
I-56
I53
tp398
tp399
Rp400
(dp401
g17
I53
sbg99
tp402
Rp403
(dp404
bg10
(g11
((I1
S'191a9fbe76c8b3L'
p405
I-54
I53
tp406
tp407
Rp408
(dp409
g17
I53
sbg133
tp410
Rp411
(dp412
bg10
(g11
((I1
S'1b333333333333L'
p413
I-54
I53
tp414
tp415
Rp416
(dp417
g17
I53
sbg144
tp418
Rp419
(dp420
bg10
(g11
((I1
S'ab50b0f27bb3L'
p421
I-50
I48
tp422
tp423
Rp424
(dp425
g17
I53
sbg155
g158
tp426
Rp427
(dp428
btp429
Rp430
(dp431
bag9
(g403
g411
g427
tp432
Rp433
(dp434
bag9
(g403
g427
tp435
Rp436
(dp437
bag10
(g11
((I1
S'ab50b0f27bb3L'
p438
I-50
I48
tp439
tp440
Rp441
(dp442
g17
I53
sbg119
g99
tp443
Rp444
(dp445
bag261
ag261
ag10
(csympy.core.power
Pow
p446
(g9
(g446
(g155
csympy.core.numbers
Integer
p447
(I2
tp448
Rp449
(dp450
btp451
Rp452
(dp453
bg10
(g446
(g119
g449
tp454
Rp455
(dp456
bg446
(g99
g449
tp457
Rp458
(dp459
btp460
Rp461
(dp462
btp463
Rp464
(dp465
bg168
tp466
Rp467
(dp468
bg119
tp469
Rp470
(dp471
bag10
(g467
g119
tp472
Rp473
(dp474
bag10
(g467
g119
tp475
Rp476
(dp477
bag10
(g168
g467
g155
g158
g99
tp478
Rp479
(dp480
bacsympy.core.numbers
One
p481
(I1
tp482
Rp483
(dp484
bag261
ag10
(g449
g446
(g449
csympy.core.numbers
Half
p485
(I1
I2
tp486
Rp487
(dp488
btp489
Rp490
(dp491
bg446
(g9
(g447
(I6
tp492
Rp493
(dp494
bg10
(g168
g18
(g9
(g10
(g447
(I-2
tp495
Rp496
(dp497
bg111
tp498
Rp499
(dp500
bg10
(g449
g69
tp501
Rp502
(dp503
bg10
(g449
g79
tp504
Rp505
(dp506
bg10
(g449
g88
tp507
Rp508
(dp509
btp510
Rp511
(dp512
btp513
Rp514
(dp515
btp516
Rp517
(dp518
bg10
(g168
g18
(g9
(g502
g505
g508
g10
(g449
g111
tp519
Rp520
(dp521
btp522
Rp523
(dp524
btp525
Rp526
(dp527
btp528
Rp529
(dp530
bg10
(g449
g18
(g520
tp531
Rp532
(dp533
btp534
Rp535
(dp536
bg10
(g449
g18
(g9
(g502
g505
g508
tp537
Rp538
(dp539
btp540
Rp541
(dp542
btp543
Rp544
(dp545
btp546
Rp547
(dp548
bcsympy.core.numbers
Rational
p549
(I-1
I2
tp550
Rp551
(dp552
btp553
Rp554
(dp555
bg155
g158
tp556
Rp557
(dp558
bag10
(g449
g490
g554
g155
g158
tp559
Rp560
(dp561
bag10
(g449
g490
g554
g155
g158
tp562
Rp563
(dp564
bag10
(g449
g490
g554
g119
g99
tp565
Rp566
(dp567
bag261
ag483
ag10
(g446
(g9
(g446
(g119
g449
tp568
Rp569
(dp570
bg10
(g446
(g155
g449
tp571
Rp572
(dp573
bg446
(g158
g449
tp574
Rp575
(dp576
btp577
Rp578
(dp579
btp580
Rp581
(dp582
bg168
tp583
Rp584
(dp585
bg119
g158
g99
tp586
Rp587
(dp588
bag10
(g584
g119
g158
g99
tp589
Rp590
(dp591
bag10
(g584
g119
g158
g99
tp592
Rp593
(dp594
bag10
(g168
g584
g155
tp595
Rp596
(dp597
bag261
asS'cols'
p598
I6
sb.