ccopy_reg
_reconstructor
p0
(csympy.matrices.dense
MutableDenseMatrix
p1
c__builtin__
object
p2
Ntp3
Rp4
(dp5
S'rows'
p6
I6
sS'_mat'
p7
(lp8
csympy.core.add
Add
p9
(csympy.core.mul
Mul
p10
(csympy.core.numbers
Float
p11
((I1
S'b333333333333L'
p12
I-53
I52
tp13
tp14
Rp15
(dp16
S'_prec'
p17
I53
sbcsympy.functions.elementary.trigonometric
sin
p18
(csympy.core.symbol
Symbol
p19
(S'q1'
p20
tp21
Rp22
(dp23
S'_assumptions'
p24
g0
(csympy.core.assumptions
StdFactKB
p25
c__builtin__
dict
p26
(dp27
S'real'
p28
NsS'irrational'
p29
NsS'antihermitian'
p30
NsS'nonpositive'
p31
NsS'negative'
p32
NsS'algebraic'
p33
NsS'hermitian'
p34
NsS'infinite'
p35
NsS'integer'
p36
NsS'imaginary'
p37
NsS'odd'
p38
NsS'even'
p39
NsS'commutative'
p40
I01
sS'positive'
p41
NsS'zero'
p42
NsS'nonnegative'
p43
NsS'complex'
p44
NsS'rational'
p45
NsS'finite'
p46
Nstp47
Rp48
(dp49
S'_generator'
p50
(dp51
sbsbtp52
Rp53
(dp54
btp55
Rp56
(dp57
bg10
(g11
((I1
S'5L'
p58
I-2
I3
tp59
tp60
Rp61
(dp62
g17
I53
sbg53
g18
(g19
(S'q2'
p63
tp64
Rp65
(dp66
g24
g0
(g25
g26
(dp67
g28
NsS'polar'
p68
Nsg29
Nsg30
Nsg31
Nsg32
Nsg33
Nsg34
Nsg35
Nsg36
Nsg37
Nsg38
Nsg39
Nsg40
I01
sg41
Nsg42
Nsg43
Nsg44
Nsg45
Nsg46
Nstp69
Rp70
(dp71
g50
(dp72
sbsbtp73
Rp74
(dp75
btp76
Rp77
(dp78
bg10
(g11
((I1
S'db8bac710cb29L'
p79
I-56
I52
tp80
tp81
Rp82
(dp83
g17
I53
sbg53
g18
(g9
(g65
g19
(S'q3'
p84
tp85
Rp86
(dp87
g24
g0
(g25
g26
(dp88
g28
Nsg68
Nsg29
Nsg30
Nsg31
Nsg32
Nsg33
Nsg34
Nsg35
Nsg36
Nsg37
Nsg38
Nsg39
Nsg40
I01
sg41
Nsg42
Nsg43
Nsg44
Nsg45
Nsg46
Nstp89
Rp90
(dp91
g50
(dp92
sbsbtp93
Rp94
(dp95
btp96
Rp97
(dp98
btp99
Rp100
(dp101
bg10
(g11
((I1
S'1805bc01a36e2fL'
p102
I-52
I53
tp103
tp104
Rp105
(dp106
g17
I53
sbcsympy.functions.elementary.trigonometric
cos
p107
(g94
tp108
Rp109
(dp110
bg53
tp111
Rp112
(dp113
bg10
(g11
((I1
S'13645a1cac0831L'
p114
I-54
I53
tp115
tp116
Rp117
(dp118
g17
I53
sbg107
(g22
tp119
Rp120
(dp121
bg18
(g19
(S'q4'
p122
tp123
Rp124
(dp125
g24
g0
(g25
g26
(dp126
g28
Nsg68
Nsg29
Nsg30
Nsg31
Nsg32
Nsg33
Nsg34
Nsg35
Nsg36
Nsg37
Nsg38
Nsg39
Nsg40
I01
sg41
Nsg42
Nsg43
Nsg44
Nsg45
Nsg46
Nstp127
Rp128
(dp129
g50
(dp130
sbsbtp131
Rp132
(dp133
bg18
(g19
(S'q5'
p134
tp135
Rp136
(dp137
g24
g0
(g25
g26
(dp138
g28
Nsg68
Nsg29
Nsg30
Nsg31
Nsg32
Nsg33
Nsg34
Nsg35
Nsg36
Nsg37
Nsg38
Nsg39
Nsg40
I01
sg41
Nsg42
Nsg43
Nsg44
Nsg45
Nsg46
Nstp139
Rp140
(dp141
g50
(dp142
sbsbtp143
Rp144
(dp145
btp146
Rp147
(dp148
bg10
(g11
((I1
S'13645a1cac0831L'
p149
I-54
I53
tp150
tp151
Rp152
(dp153
g17
I53
sbg107
(g136
tp154
Rp155
(dp156
bg109
g53
tp157
Rp158
(dp159
bg10
(g11
((I0
S'13645a1cac0831L'
p160
I-54
I53
tp161
tp162
Rp163
(dp164
g17
I53
sbg107
(g124
tp165
Rp166
(dp167
bg53
g144
g97
tp168
Rp169
(dp170
btp171
Rp172
(dp173
bag10
(g9
(g10
(g11
((I0
S'5L'
p174
I-2
I3
tp175
tp176
Rp177
(dp178
g17
I53
sbg107
(g65
tp179
Rp180
(dp181
btp182
Rp183
(dp184
bg10
(g11
((I0
S'db8bac710cb29L'
p185
I-56
I52
tp186
tp187
Rp188
(dp189
g17
I53
sbg109
tp190
Rp191
(dp192
bg10
(g11
((I1
S'1805bc01a36e2fL'
p193
I-52
I53
tp194
tp195
Rp196
(dp197
g17
I53
sbg97
tp198
Rp199
(dp200
bg10
(g11
((I1
S'13645a1cac0831L'
p201
I-54
I53
tp202
tp203
Rp204
(dp205
g17
I53
sbg155
g97
tp206
Rp207
(dp208
bg10
(g11
((I1
S'13645a1cac0831L'
p209
I-54
I53
tp210
tp211
Rp212
(dp213
g17
I53
sbg166
g109
g144
tp214
Rp215
(dp216
btp217
Rp218
(dp219
bg120
tp220
Rp221
(dp222
bag10
(g9
(g191
g199
g10
(g204
g155
g97
tp223
Rp224
(dp225
bg10
(g212
g166
g109
g144
tp226
Rp227
(dp228
btp229
Rp230
(dp231
bg120
tp232
Rp233
(dp234
bag10
(g11
((I0
S'13645a1cac0831L'
p235
I-54
I53
tp236
tp237
Rp238
(dp239
g17
I53
sbg9
(g10
(csympy.core.numbers
NegativeOne
p240
(I-1
tp241
Rp242
(dp243
bg166
g53
tp244
Rp245
(dp246
bg10
(g120
g132
g97
tp247
Rp248
(dp249
btp250
Rp251
(dp252
bg144
tp253
Rp254
(dp255
bag9
(g10
(g11
((I1
S'13645a1cac0831L'
p256
I-54
I53
tp257
tp258
Rp259
(dp260
g17
I53
sbg120
g109
g144
tp261
Rp262
(dp263
bg10
(g11
((I1
S'13645a1cac0831L'
p264
I-54
I53
tp265
tp266
Rp267
(dp268
g17
I53
sbg155
g53
g132
tp269
Rp270
(dp271
bg10
(g11
((I1
S'13645a1cac0831L'
p272
I-54
I53
tp273
tp274
Rp275
(dp276
g17
I53
sbg120
g166
g155
g97
tp277
Rp278
(dp279
btp280
Rp281
(dp282
bacsympy.core.numbers
Zero
p283
(I0
tp284
Rp285
(dp286
bag9
(g10
(g11
((I0
S'b333333333333L'
p287
I-53
I52
tp288
tp289
Rp290
(dp291
g17
I53
sbg120
tp292
Rp293
(dp294
bg10
(g11
((I0
S'5L'
p295
I-2
I3
tp296
tp297
Rp298
(dp299
g17
I53
sbg120
g74
tp300
Rp301
(dp302
bg10
(g11
((I0
S'db8bac710cb29L'
p303
I-56
I52
tp304
tp305
Rp306
(dp307
g17
I53
sbg120
g97
tp308
Rp309
(dp310
bg10
(g11
((I0
S'1805bc01a36e2fL'
p311
I-52
I53
tp312
tp313
Rp314
(dp315
g17
I53
sbg120
g109
tp316
Rp317
(dp318
bg10
(g11
((I0
S'13645a1cac0831L'
p319
I-54
I53
tp320
tp321
Rp322
(dp323
g17
I53
sbg120
g155
g109
tp324
Rp325
(dp326
bg10
(g11
((I1
S'13645a1cac0831L'
p327
I-54
I53
tp328
tp329
Rp330
(dp331
g17
I53
sbg53
g132
g144
tp332
Rp333
(dp334
bg10
(g11
((I1
S'13645a1cac0831L'
p335
I-54
I53
tp336
tp337
Rp338
(dp339
g17
I53
sbg120
g166
g144
g97
tp340
Rp341
(dp342
btp343
Rp344
(dp345
bag10
(g9
(g10
(g11
((I0
S'5L'
p346
I-2
I3
tp347
tp348
Rp349
(dp350
g17
I53
sbg180
tp351
Rp352
(dp353
bg10
(g11
((I0
S'db8bac710cb29L'
p354
I-56
I52
tp355
tp356
Rp357
(dp358
g17
I53
sbg109
tp359
Rp360
(dp361
bg10
(g11
((I1
S'1805bc01a36e2fL'
p362
I-52
I53
tp363
tp364
Rp365
(dp366
g17
I53
sbg97
tp367
Rp368
(dp369
bg10
(g11
((I1
S'13645a1cac0831L'
p370
I-54
I53
tp371
tp372
Rp373
(dp374
g17
I53
sbg155
g97
tp375
Rp376
(dp377
bg10
(g11
((I1
S'13645a1cac0831L'
p378
I-54
I53
tp379
tp380
Rp381
(dp382
g17
I53
sbg166
g109
g144
tp383
Rp384
(dp385
btp386
Rp387
(dp388
bg53
tp389
Rp390
(dp391
bag10
(g9
(g360
g368
g10
(g373
g155
g97
tp392
Rp393
(dp394
bg10
(g381
g166
g109
g144
tp395
Rp396
(dp397
btp398
Rp399
(dp400
bg53
tp401
Rp402
(dp403
bag10
(g11
((I0
S'13645a1cac0831L'
p404
I-54
I53
tp405
tp406
Rp407
(dp408
g17
I53
sbg9
(g10
(g120
g166
tp409
Rp410
(dp411
bg10
(g53
g132
g97
tp412
Rp413
(dp414
btp415
Rp416
(dp417
bg144
tp418
Rp419
(dp420
bag9
(g10
(g11
((I0
S'13645a1cac0831L'
p421
I-54
I53
tp422
tp423
Rp424
(dp425
g17
I53
sbg120
g155
g132
tp426
Rp427
(dp428
bg10
(g11
((I1
S'13645a1cac0831L'
p429
I-54
I53
tp430
tp431
Rp432
(dp433
g17
I53
sbg109
g53
g144
tp434
Rp435
(dp436
bg10
(g11
((I1
S'13645a1cac0831L'
p437
I-54
I53
tp438
tp439
Rp440
(dp441
g17
I53
sbg166
g155
g53
g97
tp442
Rp443
(dp444
btp445
Rp446
(dp447
bag285
ag285
ag9
(g10
(g11
((I1
S'5L'
p448
I-2
I3
tp449
tp450
Rp451
(dp452
g17
I53
sbg74
tp453
Rp454
(dp455
bg10
(g11
((I1
S'db8bac710cb29L'
p456
I-56
I52
tp457
tp458
Rp459
(dp460
g17
I53
sbg97
tp461
Rp462
(dp463
bg10
(g11
((I1
S'1805bc01a36e2fL'
p464
I-52
I53
tp465
tp466
Rp467
(dp468
g17
I53
sbg109
tp469
Rp470
(dp471
bg10
(g11
((I1
S'13645a1cac0831L'
p472
I-54
I53
tp473
tp474
Rp475
(dp476
g17
I53
sbg155
g109
tp477
Rp478
(dp479
bg10
(g11
((I0
S'13645a1cac0831L'
p480
I-54
I53
tp481
tp482
Rp483
(dp484
g17
I53
sbg166
g144
g97
tp485
Rp486
(dp487
btp488
Rp489
(dp490
bag9
(g462
g470
g478
g486
tp491
Rp492
(dp493
bag10
(g11
((I0
S'13645a1cac0831L'
p494
I-54
I53
tp495
tp496
Rp497
(dp498
g17
I53
sbg109
g132
g144
tp499
Rp500
(dp501
bag9
(g10
(g11
((I0
S'13645a1cac0831L'
p502
I-54
I53
tp503
tp504
Rp505
(dp506
g17
I53
sbg144
g97
tp507
Rp508
(dp509
bg10
(g11
((I1
S'13645a1cac0831L'
p510
I-54
I53
tp511
tp512
Rp513
(dp514
g17
I53
sbg166
g155
g109
tp515
Rp516
(dp517
btp518
Rp519
(dp520
bag285
ag285
ag10
(csympy.core.power
Pow
p521
(g9
(g10
(csympy.core.numbers
Rational
p522
(I-1
I8
tp523
Rp524
(dp525
bg107
(g9
(g124
g10
(csympy.core.numbers
Integer
p526
(I-2
tp527
Rp528
(dp529
bg136
tp530
Rp531
(dp532
bg10
(g526
(I2
tp533
Rp534
(dp535
bg65
tp536
Rp537
(dp538
bg10
(g534
g86
tp539
Rp540
(dp541
btp542
Rp543
(dp544
btp545
Rp546
(dp547
btp548
Rp549
(dp550
bg10
(g524
g107
(g9
(g10
(g242
g124
tp551
Rp552
(dp553
bg531
g537
g540
tp554
Rp555
(dp556
btp557
Rp558
(dp559
btp560
Rp561
(dp562
bg10
(g522
(I1
I8
tp563
Rp564
(dp565
bg107
(g9
(g124
g537
g540
g10
(g534
g136
tp566
Rp567
(dp568
btp569
Rp570
(dp571
btp572
Rp573
(dp574
btp575
Rp576
(dp577
bg10
(g564
g107
(g9
(g552
g537
g540
g567
tp578
Rp579
(dp580
btp581
Rp582
(dp583
btp584
Rp585
(dp586
bg10
(g521
(g109
g534
tp587
Rp588
(dp589
bg521
(g132
g534
tp590
Rp591
(dp592
btp593
Rp594
(dp595
bg10
(g521
(g144
g534
tp596
Rp597
(dp598
bg521
(g97
g534
tp599
Rp600
(dp601
btp602
Rp603
(dp604
bg10
(g521
(g166
g534
tp605
Rp606
(dp607
bg521
(g155
g534
tp608
Rp609
(dp610
bg588
tp611
Rp612
(dp613
btp614
Rp615
(dp616
bg242
tp617
Rp618
(dp619
bg132
g144
tp620
Rp621
(dp622
bag10
(g618
g132
g144
tp623
Rp624
(dp625
bag10
(g618
g9
(g10
(g155
g109
tp626
Rp627
(dp628
bg10
(g242
g166
g144
g97
tp629
Rp630
(dp631
btp632
Rp633
(dp634
bg109
tp635
Rp636
(dp637
bag10
(g618
g9
(g10
(g155
g97
tp638
Rp639
(dp640
bg10
(g166
g109
g144
tp641
Rp642
(dp643
btp644
Rp645
(dp646
bg109
g132
tp647
Rp648
(dp649
bacsympy.core.numbers
One
p650
(I1
tp651
Rp652
(dp653
bag285
ag10
(g521
(g534
csympy.core.numbers
Half
p654
(I1
I2
tp655
Rp656
(dp657
btp658
Rp659
(dp660
bg521
(g9
(g526
(I20
tp661
Rp662
(dp663
bg10
(g526
(I-4
tp664
Rp665
(dp666
bg107
(g10
(g534
g124
tp667
Rp668
(dp669
btp670
Rp671
(dp672
btp673
Rp674
(dp675
bg10
(g665
g107
(g567
tp676
Rp677
(dp678
btp679
Rp680
(dp681
bg10
(g665
g546
tp682
Rp683
(dp684
bg10
(g665
g558
tp685
Rp686
(dp687
bg10
(g528
g107
(g9
(g10
(g528
g124
tp688
Rp689
(dp690
bg537
g540
tp691
Rp692
(dp693
btp694
Rp695
(dp696
btp697
Rp698
(dp699
bg10
(g528
g107
(g9
(g537
g540
g668
tp700
Rp701
(dp702
btp703
Rp704
(dp705
btp706
Rp707
(dp708
bg10
(g534
g107
(g9
(g531
g668
tp709
Rp710
(dp711
btp712
Rp713
(dp714
btp715
Rp716
(dp717
bg10
(g534
g107
(g9
(g668
g567
tp718
Rp719
(dp720
btp721
Rp722
(dp723
btp724
Rp725
(dp726
bg10
(g526
(I4
tp727
Rp728
(dp729
bg107
(g9
(g537
g540
tp730
Rp731
(dp732
btp733
Rp734
(dp735
btp736
Rp737
(dp738
bg10
(g728
g573
tp739
Rp740
(dp741
bg10
(g728
g582
tp742
Rp743
(dp744
bg10
(g526
(I6
tp745
Rp746
(dp747
bg107
(g9
(g531
g537
g540
tp748
Rp749
(dp750
btp751
Rp752
(dp753
btp754
Rp755
(dp756
bg10
(g746
g107
(g9
(g537
g540
g567
tp757
Rp758
(dp759
btp760
Rp761
(dp762
btp763
Rp764
(dp765
bg107
(g9
(g689
g531
g537
g540
tp766
Rp767
(dp768
btp769
Rp770
(dp771
bg107
(g9
(g689
g537
g540
g567
tp772
Rp773
(dp774
btp775
Rp776
(dp777
bg107
(g9
(g531
g537
g540
g668
tp778
Rp779
(dp780
btp781
Rp782
(dp783
bg107
(g9
(g537
g540
g668
g567
tp784
Rp785
(dp786
btp787
Rp788
(dp789
btp790
Rp791
(dp792
bg522
(I-1
I2
tp793
Rp794
(dp795
btp796
Rp797
(dp798
bg9
(g10
(g242
g107
(g9
(g65
g86
g124
g10
(g242
g136
tp799
Rp800
(dp801
btp802
Rp803
(dp804
btp805
Rp806
(dp807
btp808
Rp809
(dp810
bg10
(g242
g107
(g9
(g65
g86
g552
g800
tp811
Rp812
(dp813
btp814
Rp815
(dp816
btp817
Rp818
(dp819
bg10
(g526
(I2
tp820
Rp821
(dp822
bg107
(g9
(g65
g86
g136
tp823
Rp824
(dp825
btp826
Rp827
(dp828
btp829
Rp830
(dp831
bg10
(g821
g107
(g9
(g65
g86
g800
tp832
Rp833
(dp834
btp835
Rp836
(dp837
btp838
Rp839
(dp840
bg107
(g9
(g65
g86
g124
g136
tp841
Rp842
(dp843
btp844
Rp845
(dp846
bg107
(g9
(g65
g86
g136
g552
tp847
Rp848
(dp849
btp850
Rp851
(dp852
btp853
Rp854
(dp855
btp856
Rp857
(dp858
bag10
(g659
g797
g9
(g10
(g242
g806
tp859
Rp860
(dp861
bg10
(g242
g815
tp862
Rp863
(dp864
bg10
(g526
(I2
tp865
Rp866
(dp867
bg827
tp868
Rp869
(dp870
bg10
(g866
g836
tp871
Rp872
(dp873
bg845
g851
tp874
Rp875
(dp876
btp877
Rp878
(dp879
bag10
(g526
(I2
tp880
Rp881
(dp882
bg659
g797
g9
(g10
(g242
g18
(g9
(g65
g86
g124
tp883
Rp884
(dp885
btp886
Rp887
(dp888
btp889
Rp890
(dp891
bg18
(g9
(g65
g86
g552
tp892
Rp893
(dp894
btp895
Rp896
(dp897
btp898
Rp899
(dp900
bg144
tp901
Rp902
(dp903
bag10
(g659
g797
g9
(g10
(g526
(I-2
tp904
Rp905
(dp906
bg836
tp907
Rp908
(dp909
bg10
(g526
(I2
tp910
Rp911
(dp912
bg827
tp913
Rp914
(dp915
bg845
g806
g851
g815
tp916
Rp917
(dp918
btp919
Rp920
(dp921
bag285
ag652
ag10
(g521
(g9
(g10
(g524
g546
tp922
Rp923
(dp924
bg10
(g524
g558
tp925
Rp926
(dp927
bg10
(g564
g573
tp928
Rp929
(dp930
bg10
(g564
g582
tp931
Rp932
(dp933
bg10
(g609
g588
tp934
Rp935
(dp936
bg10
(g591
g597
tp937
Rp938
(dp939
bg10
(g606
g597
g600
tp940
Rp941
(dp942
btp943
Rp944
(dp945
bg242
tp946
Rp947
(dp948
bg645
g132
g144
tp949
Rp950
(dp951
bag10
(g947
g645
g132
g144
tp952
Rp953
(dp954
bag10
(g947
g9
(g10
(g242
g144
g97
tp955
Rp956
(dp957
bg10
(g166
g155
g109
tp958
Rp959
(dp960
btp961
Rp962
(dp963
bg144
tp964
Rp965
(dp966
bag10
(g947
g109
g132
tp967
Rp968
(dp969
bag285
asS'cols'
p970
I6
sb.