ccopy_reg
_reconstructor
p0
(csympy.matrices.dense
MutableDenseMatrix
p1
c__builtin__
object
p2
Ntp3
Rp4
(dp5
S'rows'
p6
I7
sS'_mat'
p7
(lp8
csympy.core.add
Add
p9
(csympy.core.mul
Mul
p10
(csympy.core.numbers
Float
p11
((I0
S'1bf141205bc019L'
p12
I-56
I53
tp13
tp14
Rp15
(dp16
S'_prec'
p17
I53
sbcsympy.functions.elementary.trigonometric
cos
p18
(csympy.core.symbol
Symbol
p19
(S'q1'
p20
tp21
Rp22
(dp23
S'_assumptions'
p24
g0
(csympy.core.assumptions
StdFactKB
p25
c__builtin__
dict
p26
(dp27
S'real'
p28
NsS'irrational'
p29
NsS'antihermitian'
p30
NsS'nonpositive'
p31
NsS'algebraic'
p32
NsS'hermitian'
p33
NsS'infinite'
p34
NsS'integer'
p35
NsS'imaginary'
p36
NsS'odd'
p37
NsS'even'
p38
NsS'commutative'
p39
I01
sS'zero'
p40
NsS'positive'
p41
NsS'negative'
p42
NsS'nonnegative'
p43
NsS'complex'
p44
NsS'rational'
p45
NsS'finite'
p46
Nstp47
Rp48
(dp49
S'_generator'
p50
(dp51
sbsbtp52
Rp53
(dp54
btp55
Rp56
(dp57
bg10
(g11
((I0
S'ab50b0f27bb3L'
p58
I-50
I48
tp59
tp60
Rp61
(dp62
g17
I53
sbg53
g18
(g19
(S'q5'
p63
tp64
Rp65
(dp66
g24
g0
(g25
g26
(dp67
g28
NsS'polar'
p68
Nsg29
Nsg30
Nsg31
Nsg32
Nsg40
Nsg34
Nsg35
Nsg33
Nsg37
Nsg36
Nsg38
Nsg39
I01
sg41
Nsg42
Nsg43
Nsg44
Nsg45
Nsg46
Nstp69
Rp70
(dp71
g50
(dp72
sbsbtp73
Rp74
(dp75
btp76
Rp77
(dp78
bg10
(g11
((I0
S'191a9fbe76c8b3L'
p79
I-54
I53
tp80
tp81
Rp82
(dp83
g17
I53
sbg18
(g9
(g19
(S'q2'
p84
tp85
Rp86
(dp87
g24
g0
(g25
g26
(dp88
g28
Nsg68
Nsg29
Nsg30
Nsg31
Nsg32
Nsg33
Nsg34
Nsg35
Nsg36
Nsg37
Nsg38
Nsg39
I01
sg40
Nsg41
Nsg42
Nsg43
Nsg44
Nsg45
Nsg46
Nstp89
Rp90
(dp91
g50
(dp92
sbsbg19
(S'q3'
p93
tp94
Rp95
(dp96
g24
g0
(g25
g26
(dp97
g28
Nsg68
Nsg29
Nsg30
Nsg31
Nsg32
Nsg33
Nsg34
Nsg35
Nsg36
Nsg37
Nsg38
Nsg39
I01
sg40
Nsg41
Nsg42
Nsg43
Nsg44
Nsg45
Nsg46
Nstp98
Rp99
(dp100
g50
(dp101
sbsbtp102
Rp103
(dp104
btp105
Rp106
(dp107
bcsympy.functions.elementary.trigonometric
sin
p108
(g22
tp109
Rp110
(dp111
btp112
Rp113
(dp114
bg10
(g11
((I0
S'1b333333333333L'
p115
I-54
I53
tp116
tp117
Rp118
(dp119
g17
I53
sbg18
(g86
tp120
Rp121
(dp122
bg110
tp123
Rp124
(dp125
bg10
(g11
((I1
S'183afb7e90ff97L'
p126
I-56
I53
tp127
tp128
Rp129
(dp130
g17
I53
sbg110
g108
(g9
(g86
g95
g19
(S'q4'
p131
tp132
Rp133
(dp134
g24
g0
(g25
g26
(dp135
g28
Nsg68
Nsg29
Nsg30
Nsg31
Nsg32
Nsg33
Nsg34
Nsg35
Nsg36
Nsg37
Nsg38
Nsg39
I01
sg40
Nsg41
Nsg42
Nsg43
Nsg44
Nsg45
Nsg46
Nstp136
Rp137
(dp138
g50
(dp139
sbsbtp140
Rp141
(dp142
btp143
Rp144
(dp145
btp146
Rp147
(dp148
bg10
(g11
((I0
S'ab50b0f27bb3L'
p149
I-50
I48
tp150
tp151
Rp152
(dp153
g17
I53
sbg18
(g141
tp154
Rp155
(dp156
bg110
g108
(g65
tp157
Rp158
(dp159
btp160
Rp161
(dp162
btp163
Rp164
(dp165
bag10
(g9
(g10
(g11
((I0
S'183afb7e90ff97L'
p166
I-56
I53
tp167
tp168
Rp169
(dp170
g17
I53
sbg155
tp171
Rp172
(dp173
bg10
(g11
((I0
S'191a9fbe76c8b3L'
p174
I-54
I53
tp175
tp176
Rp177
(dp178
g17
I53
sbg108
(g103
tp179
Rp180
(dp181
btp182
Rp183
(dp184
bg10
(g11
((I0
S'1b333333333333L'
p185
I-54
I53
tp186
tp187
Rp188
(dp189
g17
I53
sbg108
(g86
tp190
Rp191
(dp192
btp193
Rp194
(dp195
bg10
(g11
((I0
S'ab50b0f27bb3L'
p196
I-50
I48
tp197
tp198
Rp199
(dp200
g17
I53
sbg158
g144
tp201
Rp202
(dp203
btp204
Rp205
(dp206
bg53
tp207
Rp208
(dp209
bag10
(g9
(g172
g183
g10
(g199
g158
g144
tp210
Rp211
(dp212
btp213
Rp214
(dp215
bg53
tp216
Rp217
(dp218
bag10
(g9
(g172
g10
(g199
g158
g144
tp219
Rp220
(dp221
btp222
Rp223
(dp224
bg53
tp225
Rp226
(dp227
bag9
(g10
(g11
((I1
S'ab50b0f27bb3L'
p228
I-50
I48
tp229
tp230
Rp231
(dp232
g17
I53
sbg110
g158
tp233
Rp234
(dp235
bg10
(g11
((I1
S'ab50b0f27bb3L'
p236
I-50
I48
tp237
tp238
Rp239
(dp240
g17
I53
sbg53
g74
g155
tp241
Rp242
(dp243
btp244
Rp245
(dp246
bacsympy.core.numbers
Zero
p247
(I0
tp248
Rp249
(dp250
bag9
(g10
(g11
((I0
S'1bf141205bc019L'
p251
I-56
I53
tp252
tp253
Rp254
(dp255
g17
I53
sbg110
tp256
Rp257
(dp258
bg10
(g11
((I0
S'ab50b0f27bb3L'
p259
I-50
I48
tp260
tp261
Rp262
(dp263
g17
I53
sbg74
g110
tp264
Rp265
(dp266
bg10
(g11
((I0
S'183afb7e90ff97L'
p267
I-56
I53
tp268
tp269
Rp270
(dp271
g17
I53
sbg53
g144
tp272
Rp273
(dp274
bg10
(g11
((I1
S'191a9fbe76c8b3L'
p275
I-54
I53
tp276
tp277
Rp278
(dp279
g17
I53
sbg53
g106
tp280
Rp281
(dp282
bg10
(g11
((I1
S'1b333333333333L'
p283
I-54
I53
tp284
tp285
Rp286
(dp287
g17
I53
sbg53
g121
tp288
Rp289
(dp290
bg10
(g11
((I1
S'ab50b0f27bb3L'
p291
I-50
I48
tp292
tp293
Rp294
(dp295
g17
I53
sbg53
g155
g158
tp296
Rp297
(dp298
btp299
Rp300
(dp301
bag10
(g9
(g10
(g11
((I0
S'183afb7e90ff97L'
p302
I-56
I53
tp303
tp304
Rp305
(dp306
g17
I53
sbg155
tp307
Rp308
(dp309
bg10
(g11
((I0
S'191a9fbe76c8b3L'
p310
I-54
I53
tp311
tp312
Rp313
(dp314
g17
I53
sbg180
tp315
Rp316
(dp317
bg10
(g11
((I0
S'1b333333333333L'
p318
I-54
I53
tp319
tp320
Rp321
(dp322
g17
I53
sbg191
tp323
Rp324
(dp325
bg10
(g11
((I0
S'ab50b0f27bb3L'
p326
I-50
I48
tp327
tp328
Rp329
(dp330
g17
I53
sbg158
g144
tp331
Rp332
(dp333
btp334
Rp335
(dp336
bg110
tp337
Rp338
(dp339
bag10
(g9
(g308
g316
g10
(g329
g158
g144
tp340
Rp341
(dp342
btp343
Rp344
(dp345
bg110
tp346
Rp347
(dp348
bag10
(g9
(g308
g10
(g329
g158
g144
tp349
Rp350
(dp351
btp352
Rp353
(dp354
bg110
tp355
Rp356
(dp357
bag9
(g10
(g11
((I0
S'ab50b0f27bb3L'
p358
I-50
I48
tp359
tp360
Rp361
(dp362
g17
I53
sbg53
g158
tp363
Rp364
(dp365
bg10
(g11
((I1
S'ab50b0f27bb3L'
p366
I-50
I48
tp367
tp368
Rp369
(dp370
g17
I53
sbg74
g155
g110
tp371
Rp372
(dp373
btp374
Rp375
(dp376
bag249
ag249
ag9
(g10
(g11
((I0
S'183afb7e90ff97L'
p377
I-56
I53
tp378
tp379
Rp380
(dp381
g17
I53
sbg144
tp382
Rp383
(dp384
bg10
(g11
((I1
S'191a9fbe76c8b3L'
p385
I-54
I53
tp386
tp387
Rp388
(dp389
g17
I53
sbg106
tp390
Rp391
(dp392
bg10
(g11
((I1
S'1b333333333333L'
p393
I-54
I53
tp394
tp395
Rp396
(dp397
g17
I53
sbg121
tp398
Rp399
(dp400
bg10
(g11
((I1
S'ab50b0f27bb3L'
p401
I-50
I48
tp402
tp403
Rp404
(dp405
g17
I53
sbg155
g158
tp406
Rp407
(dp408
btp409
Rp410
(dp411
bag9
(g383
g391
g407
tp412
Rp413
(dp414
bag9
(g383
g407
tp415
Rp416
(dp417
bag10
(g11
((I1
S'ab50b0f27bb3L'
p418
I-50
I48
tp419
tp420
Rp421
(dp422
g17
I53
sbg74
g144
tp423
Rp424
(dp425
bag249
ag10
(g11
((I0
S'1L'
p426
I-2
I1
tp427
tp428
Rp429
(dp430
g17
I53
sbcsympy.core.power
Pow
p431
(g9
(csympy.core.numbers
One
p432
(I1
tp433
Rp434
(dp435
bg10
(g9
(g10
(csympy.core.numbers
NegativeOne
p436
(I-1
tp437
Rp438
(dp439
bg53
g158
tp440
Rp441
(dp442
bg10
(g74
g155
g110
tp443
Rp444
(dp445
btp446
Rp447
(dp448
bg108
(g19
(S'q6'
p449
tp450
Rp451
(dp452
g24
g0
(g25
g26
(dp453
g28
Nsg29
Nsg30
Nsg31
Nsg32
Nsg40
Nsg34
Nsg35
Nsg33
Nsg37
Nsg36
Nsg38
Nsg39
I01
sg41
Nsg42
Nsg43
Nsg44
Nsg45
Nsg46
Nstp454
Rp455
(dp456
g50
(dp457
sbsbtp458
Rp459
(dp460
btp461
Rp462
(dp463
bg10
(g74
g110
tp464
Rp465
(dp466
bg10
(g155
g459
tp467
Rp468
(dp469
bg10
(g74
g18
(g451
tp470
Rp471
(dp472
bg144
tp473
Rp474
(dp475
bg10
(g471
g110
g144
tp476
Rp477
(dp478
bg10
(g438
g53
g155
g158
tp479
Rp480
(dp481
btp482
Rp483
(dp484
bcsympy.core.numbers
Rational
p485
(I-1
I2
tp486
Rp487
(dp488
btp489
Rp490
(dp491
bg9
(g10
(g9
(g10
(g110
g158
tp492
Rp493
(dp494
bg10
(g53
g74
g155
tp495
Rp496
(dp497
btp498
Rp499
(dp500
bg459
tp501
Rp502
(dp503
bg10
(g53
g74
tp504
Rp505
(dp506
bg10
(g53
g471
g144
tp507
Rp508
(dp509
bg10
(g155
g110
g158
tp510
Rp511
(dp512
btp513
Rp514
(dp515
btp516
Rp517
(dp518
bag10
(g11
((I0
S'1L'
p519
I-2
I1
tp520
tp521
Rp522
(dp523
g17
I53
sbg490
g9
(g10
(g438
g459
g144
tp524
Rp525
(dp526
bg10
(g53
g158
g144
tp527
Rp528
(dp529
bg10
(g74
g471
g155
tp530
Rp531
(dp532
bg10
(g471
g155
g110
tp533
Rp534
(dp535
bg10
(g438
g74
g110
g459
g144
tp536
Rp537
(dp538
btp539
Rp540
(dp541
btp542
Rp543
(dp544
bag10
(g11
((I0
S'1L'
p545
I-2
I1
tp546
tp547
Rp548
(dp549
g17
I53
sbg490
g9
(g10
(g438
g459
g144
tp550
Rp551
(dp552
bg10
(g53
g158
g144
tp553
Rp554
(dp555
bg10
(g74
g471
g155
tp556
Rp557
(dp558
bg10
(g471
g155
g110
tp559
Rp560
(dp561
bg10
(g438
g74
g110
g459
g144
tp562
Rp563
(dp564
btp565
Rp566
(dp567
btp568
Rp569
(dp570
bag10
(g11
((I0
S'1L'
p571
I-2
I1
tp572
tp573
Rp574
(dp575
g17
I53
sbg490
g9
(g10
(g438
g459
g144
tp576
Rp577
(dp578
bg10
(g53
g158
g144
tp579
Rp580
(dp581
bg10
(g74
g471
g155
tp582
Rp583
(dp584
bg10
(g471
g155
g110
tp585
Rp586
(dp587
bg10
(g438
g74
g110
g459
g144
tp588
Rp589
(dp590
btp591
Rp592
(dp593
btp594
Rp595
(dp596
bag10
(g438
g490
g9
(g10
(g11
((I0
S'1L'
p597
I-2
I1
tp598
tp599
Rp600
(dp601
g17
I53
sbg9
(g10
(g53
g74
tp602
Rp603
(dp604
bg10
(g155
g110
g158
tp605
Rp606
(dp607
btp608
Rp609
(dp610
bg459
tp611
Rp612
(dp613
bg10
(g11
((I0
S'1L'
p614
I-2
I1
tp615
tp616
Rp617
(dp618
g17
I53
sbg110
g158
tp619
Rp620
(dp621
bg10
(g11
((I0
S'1L'
p622
I-2
I1
tp623
tp624
Rp625
(dp626
g17
I53
sbg53
g74
g155
tp627
Rp628
(dp629
bg10
(g11
((I0
S'1L'
p630
I-2
I1
tp631
tp632
Rp633
(dp634
g17
I53
sbg471
g158
g144
tp635
Rp636
(dp637
btp638
Rp639
(dp640
btp641
Rp642
(dp643
bag10
(g11
((I0
S'1L'
p644
I-2
I1
tp645
tp646
Rp647
(dp648
g17
I53
sbg490
g9
(g10
(g9
(g10
(g438
g53
g158
tp649
Rp650
(dp651
bg10
(g74
g155
g110
tp652
Rp653
(dp654
btp655
Rp656
(dp657
bg471
tp658
Rp659
(dp660
bg10
(g471
g155
tp661
Rp662
(dp663
bg10
(g438
g74
g459
g144
tp664
Rp665
(dp666
bg10
(g438
g110
g459
g144
tp667
Rp668
(dp669
btp670
Rp671
(dp672
btp673
Rp674
(dp675
bag10
(g431
(g9
(g434
g465
g10
(g438
g9
(g10
(g438
g53
g158
tp676
Rp677
(dp678
bg10
(g74
g155
g110
tp679
Rp680
(dp681
btp682
Rp683
(dp684
bg459
tp685
Rp686
(dp687
bg10
(g438
g155
g459
tp688
Rp689
(dp690
bg10
(g438
g53
g155
g158
tp691
Rp692
(dp693
bg10
(g438
g74
g471
g144
tp694
Rp695
(dp696
bg10
(g438
g471
g110
g144
tp697
Rp698
(dp699
btp700
Rp701
(dp702
bg487
tp703
Rp704
(dp705
bg9
(g10
(g11
((I0
S'1L'
p706
I-2
I1
tp707
tp708
Rp709
(dp710
g17
I53
sbg9
(g10
(g9
(g10
(g110
g158
tp711
Rp712
(dp713
bg10
(g53
g74
g155
tp714
Rp715
(dp716
btp717
Rp718
(dp719
bg459
tp720
Rp721
(dp722
bg10
(g438
g53
g74
tp723
Rp724
(dp725
bg10
(g53
g471
g144
tp726
Rp727
(dp728
bg10
(g438
g155
g110
g158
tp729
Rp730
(dp731
btp732
Rp733
(dp734
bcsympy.functions.elementary.complexes
sign
p735
(g9
(g10
(g9
(g10
(g438
g53
g158
tp736
Rp737
(dp738
bg10
(g74
g155
g110
tp739
Rp740
(dp741
btp742
Rp743
(dp744
bg471
tp745
Rp746
(dp747
bg10
(g471
g155
tp748
Rp749
(dp750
bg10
(g438
g74
g459
g144
tp751
Rp752
(dp753
bg10
(g438
g110
g459
g144
tp754
Rp755
(dp756
btp757
Rp758
(dp759
btp760
Rp761
(dp762
btp763
Rp764
(dp765
bg10
(g11
((I0
S'1L'
p766
I-1
I1
tp767
tp768
Rp769
(dp770
g17
I53
sbg9
(g434
g10
(g74
g110
tp771
Rp772
(dp773
bg10
(g438
g9
(g10
(g438
g53
g158
tp774
Rp775
(dp776
bg653
tp777
Rp778
(dp779
bg459
tp780
Rp781
(dp782
bg10
(g438
g155
g459
tp783
Rp784
(dp785
bg10
(g438
g53
g155
g158
tp786
Rp787
(dp788
bg10
(g438
g74
g471
g144
tp789
Rp790
(dp791
bg10
(g438
g471
g110
g144
tp792
Rp793
(dp794
btp795
Rp796
(dp797
bcsympy.core.function
Derivative
p798
(g10
(g438
g761
tp799
Rp800
(dp801
bcsympy.core.containers
Tuple
p802
(g22
g434
tp803
Rp804
(dp805
btp806
Rp807
(dp808
btp809
Rp810
(dp811
btp812
Rp813
(dp814
btp815
Rp816
(dp817
bag10
(g704
g9
(g10
(g11
((I0
S'1L'
p818
I-1
I1
tp819
tp820
Rp821
(dp822
g17
I53
sbg701
g798
(g800
g802
(g86
g434
tp823
Rp824
(dp825
btp826
Rp827
(dp828
btp829
Rp830
(dp831
bg10
(g11
((I1
S'1L'
p832
I-2
I1
tp833
tp834
Rp835
(dp836
g17
I53
sbg9
(g10
(g459
g144
tp837
Rp838
(dp839
bg10
(g53
g158
g144
tp840
Rp841
(dp842
bg10
(g438
g74
g471
g155
tp843
Rp844
(dp845
bg10
(g438
g471
g155
g110
tp846
Rp847
(dp848
bg10
(g74
g110
g459
g144
tp849
Rp850
(dp851
btp852
Rp853
(dp854
bg761
tp855
Rp856
(dp857
btp858
Rp859
(dp860
btp861
Rp862
(dp863
bag10
(g704
g9
(g10
(g11
((I0
S'1L'
p864
I-1
I1
tp865
tp866
Rp867
(dp868
g17
I53
sbg701
g798
(g800
g802
(g95
g434
tp869
Rp870
(dp871
btp872
Rp873
(dp874
btp875
Rp876
(dp877
bg10
(g11
((I1
S'1L'
p878
I-2
I1
tp879
tp880
Rp881
(dp882
g17
I53
sbg853
g761
tp883
Rp884
(dp885
btp886
Rp887
(dp888
btp889
Rp890
(dp891
bag10
(g704
g9
(g10
(g11
((I0
S'1L'
p892
I-1
I1
tp893
tp894
Rp895
(dp896
g17
I53
sbg701
g798
(g800
g802
(g133
g434
tp897
Rp898
(dp899
btp900
Rp901
(dp902
btp903
Rp904
(dp905
bg10
(g881
g853
g761
tp906
Rp907
(dp908
btp909
Rp910
(dp911
btp912
Rp913
(dp914
bag10
(g704
g9
(g10
(g11
((I0
S'1L'
p915
I-1
I1
tp916
tp917
Rp918
(dp919
g17
I53
sbg701
g798
(g800
g802
(g65
g434
tp920
Rp921
(dp922
btp923
Rp924
(dp925
btp926
Rp927
(dp928
bg10
(g11
((I1
S'1L'
p929
I-2
I1
tp930
tp931
Rp932
(dp933
g17
I53
sbg9
(g10
(g609
g459
tp934
Rp935
(dp936
bg10
(g438
g110
g158
tp937
Rp938
(dp939
bg10
(g471
g158
g144
tp940
Rp941
(dp942
bg10
(g438
g53
g74
g155
tp943
Rp944
(dp945
btp946
Rp947
(dp948
bg761
tp949
Rp950
(dp951
btp952
Rp953
(dp954
btp955
Rp956
(dp957
bag10
(g704
g9
(g10
(g11
((I0
S'1L'
p958
I-2
I1
tp959
tp960
Rp961
(dp962
g17
I53
sbg9
(g10
(g743
g471
tp963
Rp964
(dp965
bg10
(g471
g155
tp966
Rp967
(dp968
bg10
(g438
g74
g459
g144
tp969
Rp970
(dp971
bg10
(g438
g110
g459
g144
tp972
Rp973
(dp974
btp975
Rp976
(dp977
bg761
tp978
Rp979
(dp980
bg10
(g11
((I0
S'1L'
p981
I-1
I1
tp982
tp983
Rp984
(dp985
g17
I53
sbg9
(g434
g10
(g74
g110
tp986
Rp987
(dp988
bg10
(g438
g9
(g10
(g438
g53
g158
tp989
Rp990
(dp991
bg10
(g74
g155
g110
tp992
Rp993
(dp994
btp995
Rp996
(dp997
bg459
tp998
Rp999
(dp1000
bg10
(g438
g155
g459
tp1001
Rp1002
(dp1003
bg10
(g438
g53
g155
g158
tp1004
Rp1005
(dp1006
bg10
(g438
g74
g471
g144
tp1007
Rp1008
(dp1009
bg10
(g438
g471
g110
g144
tp1010
Rp1011
(dp1012
btp1013
Rp1014
(dp1015
bg798
(g800
g802
(g451
g434
tp1016
Rp1017
(dp1018
btp1019
Rp1020
(dp1021
btp1022
Rp1023
(dp1024
btp1025
Rp1026
(dp1027
btp1028
Rp1029
(dp1030
bag10
(g431
(g9
(g434
g10
(g9
(g10
(g438
g53
g158
tp1031
Rp1032
(dp1033
bg10
(g74
g155
g110
tp1034
Rp1035
(dp1036
btp1037
Rp1038
(dp1039
bg459
tp1040
Rp1041
(dp1042
bg10
(g438
g74
g110
tp1043
Rp1044
(dp1045
bg10
(g438
g155
g459
tp1046
Rp1047
(dp1048
bg10
(g53
g155
g158
tp1049
Rp1050
(dp1051
bg10
(g471
g110
g144
tp1052
Rp1053
(dp1054
bg10
(g438
g74
g471
g144
tp1055
Rp1056
(dp1057
btp1058
Rp1059
(dp1060
bg487
tp1061
Rp1062
(dp1063
bg9
(g10
(g11
((I0
S'1L'
p1064
I-2
I1
tp1065
tp1066
Rp1067
(dp1068
g17
I53
sbg733
g735
(g9
(g10
(g9
(g10
(g110
g158
tp1069
Rp1070
(dp1071
bg10
(g53
g74
g155
tp1072
Rp1073
(dp1074
btp1075
Rp1076
(dp1077
bg471
tp1078
Rp1079
(dp1080
bg10
(g158
g144
tp1081
Rp1082
(dp1083
bg10
(g438
g53
g459
g144
tp1084
Rp1085
(dp1086
btp1087
Rp1088
(dp1089
btp1090
Rp1091
(dp1092
btp1093
Rp1094
(dp1095
bg10
(g11
((I0
S'1L'
p1096
I-1
I1
tp1097
tp1098
Rp1099
(dp1100
g17
I53
sbg9
(g434
g10
(g996
g459
tp1101
Rp1102
(dp1103
bg10
(g438
g74
g110
tp1104
Rp1105
(dp1106
bg10
(g438
g155
g459
tp1107
Rp1108
(dp1109
bg10
(g53
g155
g158
tp1110
Rp1111
(dp1112
bg10
(g471
g110
g144
tp1113
Rp1114
(dp1115
bg10
(g438
g74
g471
g144
tp1116
Rp1117
(dp1118
btp1119
Rp1120
(dp1121
bg798
(g1091
g802
(g22
g434
tp1122
Rp1123
(dp1124
btp1125
Rp1126
(dp1127
btp1128
Rp1129
(dp1130
btp1131
Rp1132
(dp1133
btp1134
Rp1135
(dp1136
bag10
(g1062
g9
(g10
(g11
((I0
S'1L'
p1137
I-1
I1
tp1138
tp1139
Rp1140
(dp1141
g17
I53
sbg1059
g798
(g1091
g802
(g86
g434
tp1142
Rp1143
(dp1144
btp1145
Rp1146
(dp1147
btp1148
Rp1149
(dp1150
bg10
(g11
((I1
S'1L'
p1151
I-2
I1
tp1152
tp1153
Rp1154
(dp1155
g17
I53
sbg9
(g10
(g438
g459
g144
tp1156
Rp1157
(dp1158
bg10
(g53
g158
g144
tp1159
Rp1160
(dp1161
bg10
(g74
g471
g155
tp1162
Rp1163
(dp1164
bg10
(g438
g471
g155
g110
tp1165
Rp1166
(dp1167
bg10
(g74
g110
g459
g144
tp1168
Rp1169
(dp1170
btp1171
Rp1172
(dp1173
bg1091
tp1174
Rp1175
(dp1176
btp1177
Rp1178
(dp1179
btp1180
Rp1181
(dp1182
bag10
(g1062
g9
(g10
(g11
((I0
S'1L'
p1183
I-1
I1
tp1184
tp1185
Rp1186
(dp1187
g17
I53
sbg1059
g798
(g1091
g802
(g95
g434
tp1188
Rp1189
(dp1190
btp1191
Rp1192
(dp1193
btp1194
Rp1195
(dp1196
bg10
(g11
((I1
S'1L'
p1197
I-2
I1
tp1198
tp1199
Rp1200
(dp1201
g17
I53
sbg1172
g1091
tp1202
Rp1203
(dp1204
btp1205
Rp1206
(dp1207
btp1208
Rp1209
(dp1210
bag10
(g1062
g9
(g10
(g11
((I0
S'1L'
p1211
I-1
I1
tp1212
tp1213
Rp1214
(dp1215
g17
I53
sbg1120
g798
(g1091
g802
(g133
g434
tp1216
Rp1217
(dp1218
btp1219
Rp1220
(dp1221
btp1222
Rp1223
(dp1224
bg10
(g11
((I1
S'1L'
p1225
I-2
I1
tp1226
tp1227
Rp1228
(dp1229
g17
I53
sbg1172
g1091
tp1230
Rp1231
(dp1232
btp1233
Rp1234
(dp1235
btp1236
Rp1237
(dp1238
bag10
(g1062
g9
(g10
(g11
((I0
S'1L'
p1239
I-2
I1
tp1240
tp1241
Rp1242
(dp1243
g17
I53
sbg9
(g10
(g110
g158
tp1244
Rp1245
(dp1246
bg10
(g438
g9
(g10
(g53
g74
tp1247
Rp1248
(dp1249
bg10
(g155
g110
g158
tp1250
Rp1251
(dp1252
btp1253
Rp1254
(dp1255
bg459
tp1256
Rp1257
(dp1258
bg10
(g53
g74
g155
tp1259
Rp1260
(dp1261
bg10
(g471
g158
g144
tp1262
Rp1263
(dp1264
btp1265
Rp1266
(dp1267
bg1091
tp1268
Rp1269
(dp1270
bg10
(g11
((I0
S'1L'
p1271
I-1
I1
tp1272
tp1273
Rp1274
(dp1275
g17
I53
sbg9
(g434
g10
(g996
g459
tp1276
Rp1277
(dp1278
bg10
(g438
g74
g110
tp1279
Rp1280
(dp1281
bg10
(g438
g155
g459
tp1282
Rp1283
(dp1284
bg10
(g53
g155
g158
tp1285
Rp1286
(dp1287
bg10
(g471
g110
g144
tp1288
Rp1289
(dp1290
bg10
(g438
g74
g471
g144
tp1291
Rp1292
(dp1293
btp1294
Rp1295
(dp1296
bg798
(g1091
g802
(g65
g434
tp1297
Rp1298
(dp1299
btp1300
Rp1301
(dp1302
btp1303
Rp1304
(dp1305
btp1306
Rp1307
(dp1308
btp1309
Rp1310
(dp1311
bag10
(g1062
g9
(g10
(g11
((I0
S'1L'
p1312
I-2
I1
tp1313
tp1314
Rp1315
(dp1316
g17
I53
sbg9
(g10
(g9
(g10
(g438
g53
g158
tp1317
Rp1318
(dp1319
bg10
(g74
g155
g110
tp1320
Rp1321
(dp1322
btp1323
Rp1324
(dp1325
bg471
tp1326
Rp1327
(dp1328
bg10
(g438
g471
g155
tp1329
Rp1330
(dp1331
bg10
(g74
g459
g144
tp1332
Rp1333
(dp1334
bg10
(g438
g110
g459
g144
tp1335
Rp1336
(dp1337
btp1338
Rp1339
(dp1340
bg1091
tp1341
Rp1342
(dp1343
bg10
(g11
((I0
S'1L'
p1344
I-1
I1
tp1345
tp1346
Rp1347
(dp1348
g17
I53
sbg9
(g434
g10
(g996
g459
tp1349
Rp1350
(dp1351
bg10
(g438
g74
g110
tp1352
Rp1353
(dp1354
bg10
(g438
g155
g459
tp1355
Rp1356
(dp1357
bg10
(g53
g155
g158
tp1358
Rp1359
(dp1360
bg10
(g471
g110
g144
tp1361
Rp1362
(dp1363
bg10
(g438
g74
g471
g144
tp1364
Rp1365
(dp1366
btp1367
Rp1368
(dp1369
bg798
(g1091
g802
(g451
g434
tp1370
Rp1371
(dp1372
btp1373
Rp1374
(dp1375
btp1376
Rp1377
(dp1378
btp1379
Rp1380
(dp1381
btp1382
Rp1383
(dp1384
bag10
(g431
(g9
(g434
g10
(g155
g459
tp1385
Rp1386
(dp1387
bg10
(g438
g9
(g10
(g438
g53
g158
tp1388
Rp1389
(dp1390
bg10
(g74
g155
g110
tp1391
Rp1392
(dp1393
btp1394
Rp1395
(dp1396
bg459
tp1397
Rp1398
(dp1399
bg10
(g438
g74
g110
tp1400
Rp1401
(dp1402
bg10
(g53
g155
g158
tp1403
Rp1404
(dp1405
bg10
(g74
g471
g144
tp1406
Rp1407
(dp1408
bg10
(g438
g471
g110
g144
tp1409
Rp1410
(dp1411
btp1412
Rp1413
(dp1414
bg487
tp1415
Rp1416
(dp1417
bg9
(g10
(g11
((I0
S'1L'
p1418
I-2
I1
tp1419
tp1420
Rp1421
(dp1422
g17
I53
sbg9
(g10
(g9
(g10
(g110
g158
tp1423
Rp1424
(dp1425
bg10
(g53
g74
g155
tp1426
Rp1427
(dp1428
btp1429
Rp1430
(dp1431
bg459
tp1432
Rp1433
(dp1434
bg10
(g53
g74
tp1435
Rp1436
(dp1437
bg10
(g53
g471
g144
tp1438
Rp1439
(dp1440
bg10
(g155
g110
g158
tp1441
Rp1442
(dp1443
btp1444
Rp1445
(dp1446
bg735
(g9
(g10
(g9
(g10
(g110
g158
tp1447
Rp1448
(dp1449
bg10
(g53
g74
g155
tp1450
Rp1451
(dp1452
btp1453
Rp1454
(dp1455
bg459
tp1456
Rp1457
(dp1458
bg10
(g53
g74
tp1459
Rp1460
(dp1461
bg10
(g53
g471
g144
tp1462
Rp1463
(dp1464
bg10
(g155
g110
g158
tp1465
Rp1466
(dp1467
btp1468
Rp1469
(dp1470
btp1471
Rp1472
(dp1473
btp1474
Rp1475
(dp1476
bg10
(g11
((I1
S'1L'
p1477
I-1
I1
tp1478
tp1479
Rp1480
(dp1481
g17
I53
sbg9
(g434
g10
(g155
g459
tp1482
Rp1483
(dp1484
bg10
(g438
g9
(g10
(g438
g53
g158
tp1485
Rp1486
(dp1487
bg10
(g74
g155
g110
tp1488
Rp1489
(dp1490
btp1491
Rp1492
(dp1493
bg459
tp1494
Rp1495
(dp1496
bg10
(g438
g74
g110
tp1497
Rp1498
(dp1499
bg10
(g53
g155
g158
tp1500
Rp1501
(dp1502
bg10
(g74
g471
g144
tp1503
Rp1504
(dp1505
bg10
(g438
g471
g110
g144
tp1506
Rp1507
(dp1508
btp1509
Rp1510
(dp1511
bg798
(g1472
g802
(g22
g434
tp1512
Rp1513
(dp1514
btp1515
Rp1516
(dp1517
btp1518
Rp1519
(dp1520
btp1521
Rp1522
(dp1523
btp1524
Rp1525
(dp1526
bag10
(g1416
g9
(g10
(g11
((I0
S'1L'
p1527
I-2
I1
tp1528
tp1529
Rp1530
(dp1531
g17
I53
sbg9
(g10
(g459
g144
tp1532
Rp1533
(dp1534
bg10
(g53
g158
g144
tp1535
Rp1536
(dp1537
bg10
(g471
g155
g110
tp1538
Rp1539
(dp1540
bg10
(g438
g74
g471
g155
tp1541
Rp1542
(dp1543
bg10
(g438
g74
g110
g459
g144
tp1544
Rp1545
(dp1546
btp1547
Rp1548
(dp1549
bg1472
tp1550
Rp1551
(dp1552
bg10
(g11
((I1
S'1L'
p1553
I-1
I1
tp1554
tp1555
Rp1556
(dp1557
g17
I53
sbg9
(g434
g10
(g155
g459
tp1558
Rp1559
(dp1560
bg10
(g438
g996
g459
tp1561
Rp1562
(dp1563
bg10
(g438
g74
g110
tp1564
Rp1565
(dp1566
bg10
(g53
g155
g158
tp1567
Rp1568
(dp1569
bg10
(g74
g471
g144
tp1570
Rp1571
(dp1572
bg10
(g438
g471
g110
g144
tp1573
Rp1574
(dp1575
btp1576
Rp1577
(dp1578
bg798
(g1472
g802
(g86
g434
tp1579
Rp1580
(dp1581
btp1582
Rp1583
(dp1584
btp1585
Rp1586
(dp1587
btp1588
Rp1589
(dp1590
btp1591
Rp1592
(dp1593
bag10
(g1416
g9
(g10
(g11
((I0
S'1L'
p1594
I-2
I1
tp1595
tp1596
Rp1597
(dp1598
g17
I53
sbg1548
g1472
tp1599
Rp1600
(dp1601
bg10
(g11
((I1
S'1L'
p1602
I-1
I1
tp1603
tp1604
Rp1605
(dp1606
g17
I53
sbg9
(g434
g10
(g155
g459
tp1607
Rp1608
(dp1609
bg10
(g438
g996
g459
tp1610
Rp1611
(dp1612
bg10
(g438
g74
g110
tp1613
Rp1614
(dp1615
bg10
(g53
g155
g158
tp1616
Rp1617
(dp1618
bg10
(g74
g471
g144
tp1619
Rp1620
(dp1621
bg10
(g438
g471
g110
g144
tp1622
Rp1623
(dp1624
btp1625
Rp1626
(dp1627
bg798
(g1472
g802
(g95
g434
tp1628
Rp1629
(dp1630
btp1631
Rp1632
(dp1633
btp1634
Rp1635
(dp1636
btp1637
Rp1638
(dp1639
btp1640
Rp1641
(dp1642
bag10
(g1416
g9
(g10
(g1597
g1548
g1472
tp1643
Rp1644
(dp1645
bg10
(g11
((I1
S'1L'
p1646
I-1
I1
tp1647
tp1648
Rp1649
(dp1650
g17
I53
sbg9
(g434
g10
(g155
g459
tp1651
Rp1652
(dp1653
bg10
(g438
g996
g459
tp1654
Rp1655
(dp1656
bg10
(g438
g74
g110
tp1657
Rp1658
(dp1659
bg10
(g53
g155
g158
tp1660
Rp1661
(dp1662
bg10
(g74
g471
g144
tp1663
Rp1664
(dp1665
bg10
(g438
g471
g110
g144
tp1666
Rp1667
(dp1668
btp1669
Rp1670
(dp1671
bg798
(g1472
g802
(g133
g434
tp1672
Rp1673
(dp1674
btp1675
Rp1676
(dp1677
btp1678
Rp1679
(dp1680
btp1681
Rp1682
(dp1683
btp1684
Rp1685
(dp1686
bag10
(g438
g1416
g9
(g10
(g11
((I0
S'1L'
p1687
I-2
I1
tp1688
tp1689
Rp1690
(dp1691
g17
I53
sbg9
(g10
(g9
(g10
(g53
g74
tp1692
Rp1693
(dp1694
bg10
(g155
g110
g158
tp1695
Rp1696
(dp1697
btp1698
Rp1699
(dp1700
bg459
tp1701
Rp1702
(dp1703
bg10
(g110
g158
tp1704
Rp1705
(dp1706
bg10
(g53
g74
g155
tp1707
Rp1708
(dp1709
bg10
(g438
g471
g158
g144
tp1710
Rp1711
(dp1712
btp1713
Rp1714
(dp1715
bg1472
tp1716
Rp1717
(dp1718
bg10
(g11
((I0
S'1L'
p1719
I-1
I1
tp1720
tp1721
Rp1722
(dp1723
g17
I53
sbg9
(g434
g10
(g155
g459
tp1724
Rp1725
(dp1726
bg10
(g438
g996
g459
tp1727
Rp1728
(dp1729
bg10
(g438
g74
g110
tp1730
Rp1731
(dp1732
bg10
(g53
g155
g158
tp1733
Rp1734
(dp1735
bg10
(g74
g471
g144
tp1736
Rp1737
(dp1738
bg10
(g438
g471
g110
g144
tp1739
Rp1740
(dp1741
btp1742
Rp1743
(dp1744
bg798
(g1472
g802
(g65
g434
tp1745
Rp1746
(dp1747
btp1748
Rp1749
(dp1750
btp1751
Rp1752
(dp1753
btp1754
Rp1755
(dp1756
btp1757
Rp1758
(dp1759
bag10
(g1416
g9
(g10
(g11
((I0
S'1L'
p1760
I-2
I1
tp1761
tp1762
Rp1763
(dp1764
g17
I53
sbg9
(g10
(g9
(g10
(g438
g53
g158
tp1765
Rp1766
(dp1767
bg10
(g74
g155
g110
tp1768
Rp1769
(dp1770
btp1771
Rp1772
(dp1773
bg471
tp1774
Rp1775
(dp1776
bg10
(g438
g471
g155
tp1777
Rp1778
(dp1779
bg10
(g74
g459
g144
tp1780
Rp1781
(dp1782
bg10
(g438
g110
g459
g144
tp1783
Rp1784
(dp1785
btp1786
Rp1787
(dp1788
bg1472
tp1789
Rp1790
(dp1791
bg10
(g11
((I1
S'1L'
p1792
I-1
I1
tp1793
tp1794
Rp1795
(dp1796
g17
I53
sbg9
(g434
g10
(g155
g459
tp1797
Rp1798
(dp1799
bg10
(g438
g996
g459
tp1800
Rp1801
(dp1802
bg10
(g438
g74
g110
tp1803
Rp1804
(dp1805
bg10
(g53
g155
g158
tp1806
Rp1807
(dp1808
bg10
(g74
g471
g144
tp1809
Rp1810
(dp1811
bg10
(g438
g471
g110
g144
tp1812
Rp1813
(dp1814
btp1815
Rp1816
(dp1817
bg798
(g1472
g802
(g451
g434
tp1818
Rp1819
(dp1820
btp1821
Rp1822
(dp1823
btp1824
Rp1825
(dp1826
btp1827
Rp1828
(dp1829
btp1830
Rp1831
(dp1832
basS'cols'
p1833
I6
sb.