ccopy_reg
_reconstructor
p0
(csympy.matrices.dense
MutableDenseMatrix
p1
c__builtin__
object
p2
Ntp3
Rp4
(dp5
S'rows'
p6
I7
sS'_mat'
p7
(lp8
csympy.core.add
Add
p9
(csympy.core.mul
Mul
p10
(csympy.core.numbers
Float
p11
((I1
S'df8a0902de00dL'
p12
I-55
I52
tp13
tp14
Rp15
(dp16
S'_prec'
p17
I53
sbcsympy.functions.elementary.trigonometric
sin
p18
(csympy.core.symbol
Symbol
p19
(S'q1'
p20
tp21
Rp22
(dp23
S'_assumptions'
p24
g0
(csympy.core.assumptions
StdFactKB
p25
c__builtin__
dict
p26
(dp27
S'real'
p28
NsS'irrational'
p29
NsS'antihermitian'
p30
NsS'nonpositive'
p31
NsS'algebraic'
p32
NsS'hermitian'
p33
NsS'infinite'
p34
NsS'integer'
p35
NsS'imaginary'
p36
NsS'odd'
p37
NsS'even'
p38
NsS'commutative'
p39
I01
sS'zero'
p40
NsS'positive'
p41
NsS'negative'
p42
NsS'nonnegative'
p43
NsS'complex'
p44
NsS'rational'
p45
NsS'finite'
p46
Nstp47
Rp48
(dp49
S'_generator'
p50
(dp51
sbsbtp52
Rp53
(dp54
btp55
Rp56
(dp57
bg10
(g11
((I0
S'ab50b0f27bb3L'
p58
I-50
I48
tp59
tp60
Rp61
(dp62
g17
I53
sbg9
(g10
(g9
(g10
(csympy.functions.elementary.trigonometric
cos
p63
(g22
tp64
Rp65
(dp66
bg63
(g19
(S'q2'
p67
tp68
Rp69
(dp70
g24
g0
(g25
g26
(dp71
g28
NsS'polar'
p72
Nsg29
Nsg30
Nsg31
Nsg32
Nsg33
Nsg34
Nsg35
Nsg36
Nsg37
Nsg38
Nsg39
I01
sg40
Nsg41
Nsg42
Nsg43
Nsg44
Nsg45
Nsg46
Nstp73
Rp74
(dp75
g50
(dp76
sbsbtp77
Rp78
(dp79
bg63
(g19
(S'q3'
p80
tp81
Rp82
(dp83
g24
g0
(g25
g26
(dp84
g28
Nsg72
Nsg29
Nsg30
Nsg31
Nsg32
Nsg40
Nsg34
Nsg35
Nsg33
Nsg37
Nsg36
Nsg38
Nsg39
I01
sg41
Nsg42
Nsg43
Nsg44
Nsg45
Nsg46
Nstp85
Rp86
(dp87
g50
(dp88
sbsbtp89
Rp90
(dp91
btp92
Rp93
(dp94
bg10
(csympy.core.numbers
NegativeOne
p95
(I-1
tp96
Rp97
(dp98
bg65
g18
(g69
tp99
Rp100
(dp101
bg18
(g82
tp102
Rp103
(dp104
btp105
Rp106
(dp107
btp108
Rp109
(dp110
bg63
(g19
(S'q4'
p111
tp112
Rp113
(dp114
g24
g0
(g25
g26
(dp115
g28
Nsg72
Nsg29
Nsg30
Nsg31
Nsg32
Nsg40
Nsg34
Nsg35
Nsg33
Nsg37
Nsg36
Nsg38
Nsg39
I01
sg41
Nsg42
Nsg43
Nsg44
Nsg45
Nsg46
Nstp116
Rp117
(dp118
g50
(dp119
sbsbtp120
Rp121
(dp122
btp123
Rp124
(dp125
bg10
(g9
(g10
(g97
g65
g78
g103
tp126
Rp127
(dp128
bg10
(g97
g65
g90
g100
tp129
Rp130
(dp131
btp132
Rp133
(dp134
bg18
(g113
tp135
Rp136
(dp137
btp138
Rp139
(dp140
btp141
Rp142
(dp143
bg18
(g19
(S'q5'
p144
tp145
Rp146
(dp147
g24
g0
(g25
g26
(dp148
g28
Nsg72
Nsg29
Nsg30
Nsg31
Nsg32
Nsg40
Nsg34
Nsg35
Nsg33
Nsg37
Nsg36
Nsg38
Nsg39
I01
sg41
Nsg42
Nsg43
Nsg44
Nsg45
Nsg46
Nstp149
Rp150
(dp151
g50
(dp152
sbsbtp153
Rp154
(dp155
btp156
Rp157
(dp158
bg10
(g11
((I0
S'183afb7e90ff97L'
p159
I-56
I53
tp160
tp161
Rp162
(dp163
g17
I53
sbg9
(g10
(g97
g65
g78
g103
tp164
Rp165
(dp166
bg10
(g97
g65
g90
g100
tp167
Rp168
(dp169
btp170
Rp171
(dp172
bg121
tp173
Rp174
(dp175
bg10
(g11
((I0
S'1b333333333333L'
p176
I-54
I53
tp177
tp178
Rp179
(dp180
g17
I53
sbg65
g78
tp181
Rp182
(dp183
bg10
(g11
((I1
S'ab50b0f27bb3L'
p184
I-50
I48
tp185
tp186
Rp187
(dp188
g17
I53
sbg63
(g146
tp189
Rp190
(dp191
bg53
tp192
Rp193
(dp194
bg10
(g11
((I1
S'183afb7e90ff97L'
p195
I-56
I53
tp196
tp197
Rp198
(dp199
g17
I53
sbg9
(g10
(g65
g78
g90
tp200
Rp201
(dp202
bg10
(g97
g65
g100
g103
tp203
Rp204
(dp205
btp206
Rp207
(dp208
bg136
tp209
Rp210
(dp211
bg10
(g11
((I0
S'646a7ef9db22dL'
p212
I-52
I51
tp213
tp214
Rp215
(dp216
g17
I53
sbg65
g78
g90
tp217
Rp218
(dp219
bg10
(g11
((I1
S'646a7ef9db22dL'
p220
I-52
I51
tp221
tp222
Rp223
(dp224
g17
I53
sbg65
g100
g103
tp225
Rp226
(dp227
btp228
Rp229
(dp230
bag9
(g10
(g11
((I0
S'df8a0902de00dL'
p231
I-55
I52
tp232
tp233
Rp234
(dp235
g17
I53
sbg65
tp236
Rp237
(dp238
bg10
(g11
((I0
S'ab50b0f27bb3L'
p239
I-50
I48
tp240
tp241
Rp242
(dp243
g17
I53
sbg9
(g10
(g9
(g10
(g78
g90
g53
tp244
Rp245
(dp246
bg10
(g97
g53
g100
g103
tp247
Rp248
(dp249
btp250
Rp251
(dp252
bg121
tp253
Rp254
(dp255
bg10
(g9
(g10
(g97
g78
g53
g103
tp256
Rp257
(dp258
bg10
(g97
g90
g53
g100
tp259
Rp260
(dp261
btp262
Rp263
(dp264
bg136
tp265
Rp266
(dp267
btp268
Rp269
(dp270
bg154
tp271
Rp272
(dp273
bg10
(g11
((I0
S'ab50b0f27bb3L'
p274
I-50
I48
tp275
tp276
Rp277
(dp278
g17
I53
sbg65
g190
tp279
Rp280
(dp281
bg10
(g11
((I0
S'183afb7e90ff97L'
p282
I-56
I53
tp283
tp284
Rp285
(dp286
g17
I53
sbg263
g121
tp287
Rp288
(dp289
bg10
(g11
((I0
S'1b333333333333L'
p290
I-54
I53
tp291
tp292
Rp293
(dp294
g17
I53
sbg78
g53
tp295
Rp296
(dp297
bg10
(g11
((I1
S'183afb7e90ff97L'
p298
I-56
I53
tp299
tp300
Rp301
(dp302
g17
I53
sbg9
(g10
(g78
g90
g53
tp303
Rp304
(dp305
bg10
(g97
g53
g100
g103
tp306
Rp307
(dp308
btp309
Rp310
(dp311
bg136
tp312
Rp313
(dp314
bg10
(g11
((I0
S'646a7ef9db22dL'
p315
I-52
I51
tp316
tp317
Rp318
(dp319
g17
I53
sbg78
g90
g53
tp320
Rp321
(dp322
bg10
(g11
((I1
S'646a7ef9db22dL'
p323
I-52
I51
tp324
tp325
Rp326
(dp327
g17
I53
sbg53
g100
g103
tp328
Rp329
(dp330
btp331
Rp332
(dp333
bag9
(g11
((I0
S'16d31fcd24e161L'
p334
I-56
I53
tp335
tp336
Rp337
(dp338
g17
I53
sbg10
(g11
((I1
S'1b333333333333L'
p339
I-54
I53
tp340
tp341
Rp342
(dp343
g17
I53
sbg100
tp344
Rp345
(dp346
bg10
(g11
((I0
S'183afb7e90ff97L'
p347
I-56
I53
tp348
tp349
Rp350
(dp351
g17
I53
sbg9
(g10
(g78
g103
tp352
Rp353
(dp354
bg10
(g90
g100
tp355
Rp356
(dp357
btp358
Rp359
(dp360
bg136
tp361
Rp362
(dp363
bg10
(g11
((I1
S'ab50b0f27bb3L'
p364
I-50
I48
tp365
tp366
Rp367
(dp368
g17
I53
sbg9
(g10
(g9
(g10
(g78
g90
tp369
Rp370
(dp371
bg10
(g97
g100
g103
tp372
Rp373
(dp374
btp375
Rp376
(dp377
bg136
tp378
Rp379
(dp380
bg10
(g9
(g10
(g78
g103
tp381
Rp382
(dp383
bg10
(g90
g100
tp384
Rp385
(dp386
btp387
Rp388
(dp389
bg121
tp390
Rp391
(dp392
btp393
Rp394
(dp395
bg154
tp396
Rp397
(dp398
bg10
(g11
((I1
S'646a7ef9db22dL'
p399
I-52
I51
tp400
tp401
Rp402
(dp403
g17
I53
sbg78
g103
tp404
Rp405
(dp406
bg10
(g11
((I1
S'646a7ef9db22dL'
p407
I-52
I51
tp408
tp409
Rp410
(dp411
g17
I53
sbg90
g100
tp412
Rp413
(dp414
bg10
(g11
((I1
S'183afb7e90ff97L'
p415
I-56
I53
tp416
tp417
Rp418
(dp419
g17
I53
sbg376
g121
tp420
Rp421
(dp422
btp423
Rp424
(dp425
bag10
(g11
((I0
S'1L'
p426
I-1
I1
tp427
tp428
Rp429
(dp430
g17
I53
sbcsympy.core.power
Pow
p431
(g9
(csympy.core.numbers
One
p432
(I1
tp433
Rp434
(dp435
bg10
(g9
(g10
(g109
g121
tp436
Rp437
(dp438
bg10
(g133
g136
tp439
Rp440
(dp441
btp442
Rp443
(dp444
bg154
tp445
Rp446
(dp447
bg10
(g9
(g10
(g251
g136
tp448
Rp449
(dp450
bg10
(g97
g263
g121
tp451
Rp452
(dp453
btp454
Rp455
(dp456
bg18
(g19
(S'q6'
p457
tp458
Rp459
(dp460
g24
g0
(g25
g26
(dp461
g28
Nsg29
Nsg30
Nsg31
Nsg32
Nsg40
Nsg34
Nsg35
Nsg33
Nsg37
Nsg36
Nsg38
Nsg39
I01
sg41
Nsg42
Nsg43
Nsg44
Nsg45
Nsg46
Nstp462
Rp463
(dp464
g50
(dp465
sbsbtp466
Rp467
(dp468
btp469
Rp470
(dp471
bg10
(g97
g9
(g10
(g9
(g10
(g251
g121
tp472
Rp473
(dp474
bg10
(g263
g136
tp475
Rp476
(dp477
btp478
Rp479
(dp480
bg190
tp481
Rp482
(dp483
bg10
(g97
g65
g154
tp484
Rp485
(dp486
btp487
Rp488
(dp489
bg63
(g459
tp490
Rp491
(dp492
btp493
Rp494
(dp495
bg10
(g97
g9
(g10
(g388
g136
tp496
Rp497
(dp498
bg10
(g97
g376
g121
tp499
Rp500
(dp501
btp502
Rp503
(dp504
bg491
tp505
Rp506
(dp507
bg10
(g97
g190
g53
tp508
Rp509
(dp510
bg10
(g97
g9
(g10
(g376
g136
tp511
Rp512
(dp513
bg10
(g388
g121
tp514
Rp515
(dp516
btp517
Rp518
(dp519
bg190
g467
tp520
Rp521
(dp522
btp523
Rp524
(dp525
bcsympy.core.numbers
Half
p526
(I1
I2
tp527
Rp528
(dp529
btp530
Rp531
(dp532
bcsympy.functions.elementary.complexes
sign
p533
(g9
(g10
(g488
g467
tp534
Rp535
(dp536
bg10
(g503
g467
tp537
Rp538
(dp539
bg10
(g455
g491
tp540
Rp541
(dp542
bg10
(g97
g518
g190
g491
tp543
Rp544
(dp545
btp546
Rp547
(dp548
btp549
Rp550
(dp551
btp552
Rp553
(dp554
bag10
(g11
((I0
S'1L'
p555
I-1
I1
tp556
tp557
Rp558
(dp559
g17
I53
sbg431
(g9
(g434
g10
(g488
g491
tp560
Rp561
(dp562
bg10
(g190
g53
tp563
Rp564
(dp565
bg10
(g97
g503
g491
tp566
Rp567
(dp568
bg10
(g97
g443
g154
tp569
Rp570
(dp571
bg10
(g97
g455
g467
tp572
Rp573
(dp574
bg10
(g97
g518
g190
g467
tp575
Rp576
(dp577
btp578
Rp579
(dp580
bg528
tp581
Rp582
(dp583
bg533
(g9
(g10
(g394
g154
tp584
Rp585
(dp586
bg10
(g97
g9
(g10
(g142
g190
tp587
Rp588
(dp589
bg10
(g53
g154
tp590
Rp591
(dp592
btp593
Rp594
(dp595
bg467
tp596
Rp597
(dp598
bg10
(g97
g9
(g10
(g207
g136
tp599
Rp600
(dp601
bg10
(g97
g171
g121
tp602
Rp603
(dp604
btp605
Rp606
(dp607
bg491
tp608
Rp609
(dp610
btp611
Rp612
(dp613
btp614
Rp615
(dp616
btp617
Rp618
(dp619
bag10
(g11
((I0
S'1L'
p620
I-1
I1
tp621
tp622
Rp623
(dp624
g17
I53
sbg431
(g9
(g434
g10
(g503
g491
tp625
Rp626
(dp627
bg470
g564
g10
(g97
g488
g491
tp628
Rp629
(dp630
bg10
(g97
g443
g154
tp631
Rp632
(dp633
bg10
(g518
g190
g467
tp634
Rp635
(dp636
btp637
Rp638
(dp639
bg528
tp640
Rp641
(dp642
bg533
(g9
(g10
(g606
g467
tp643
Rp644
(dp645
bg10
(g269
g154
tp646
Rp647
(dp648
bg10
(g65
g190
tp649
Rp650
(dp651
bg10
(g97
g594
g491
tp652
Rp653
(dp654
btp655
Rp656
(dp657
btp658
Rp659
(dp660
btp661
Rp662
(dp663
bag10
(g11
((I0
S'1L'
p664
I-1
I1
tp665
tp666
Rp667
(dp668
g17
I53
sbg431
(g9
(g434
g561
g626
g446
g10
(g97
g455
g467
tp669
Rp670
(dp671
bg10
(g97
g190
g53
tp672
Rp673
(dp674
bg635
tp675
Rp676
(dp677
bg528
tp678
Rp679
(dp680
btp681
Rp682
(dp683
basS'cols'
p684
I1
sb.