ccopy_reg
_reconstructor
p0
(csympy.matrices.dense
MutableDenseMatrix
p1
c__builtin__
object
p2
Ntp3
Rp4
(dp5
S'rows'
p6
I7
sS'_mat'
p7
(lp8
csympy.core.add
Add
p9
(csympy.core.mul
Mul
p10
(csympy.core.numbers
Float
p11
((I1
S'1bf141205bc019L'
p12
I-56
I53
tp13
tp14
Rp15
(dp16
S'_prec'
p17
I53
sbcsympy.functions.elementary.trigonometric
cos
p18
(csympy.core.symbol
Symbol
p19
(S'q1'
p20
tp21
Rp22
(dp23
S'_assumptions'
p24
g0
(csympy.core.assumptions
StdFactKB
p25
c__builtin__
dict
p26
(dp27
S'real'
p28
NsS'irrational'
p29
NsS'antihermitian'
p30
NsS'nonpositive'
p31
NsS'algebraic'
p32
NsS'hermitian'
p33
NsS'infinite'
p34
NsS'integer'
p35
NsS'imaginary'
p36
NsS'odd'
p37
NsS'even'
p38
NsS'commutative'
p39
I01
sS'zero'
p40
NsS'positive'
p41
NsS'negative'
p42
NsS'nonnegative'
p43
NsS'complex'
p44
NsS'rational'
p45
NsS'finite'
p46
Nstp47
Rp48
(dp49
S'_generator'
p50
(dp51
sbsbtp52
Rp53
(dp54
btp55
Rp56
(dp57
bg10
(g11
((I0
S'183afb7e90ff97L'
p58
I-56
I53
tp59
tp60
Rp61
(dp62
g17
I53
sbcsympy.functions.elementary.trigonometric
sin
p63
(g22
tp64
Rp65
(dp66
bg63
(g9
(g19
(S'q2'
p67
tp68
Rp69
(dp70
g24
g0
(g25
g26
(dp71
g28
NsS'polar'
p72
Nsg29
Nsg30
Nsg31
Nsg32
Nsg33
Nsg34
Nsg35
Nsg36
Nsg37
Nsg38
Nsg39
I01
sg40
Nsg41
Nsg42
Nsg43
Nsg44
Nsg45
Nsg46
Nstp73
Rp74
(dp75
g50
(dp76
sbsbg19
(S'q3'
p77
tp78
Rp79
(dp80
g24
g0
(g25
g26
(dp81
g28
Nsg72
Nsg29
Nsg30
Nsg31
Nsg32
Nsg40
Nsg34
Nsg35
Nsg33
Nsg37
Nsg36
Nsg38
Nsg39
I01
sg41
Nsg42
Nsg43
Nsg44
Nsg45
Nsg46
Nstp82
Rp83
(dp84
g50
(dp85
sbsbg19
(S'q4'
p86
tp87
Rp88
(dp89
g24
g0
(g25
g26
(dp90
g28
Nsg72
Nsg29
Nsg30
Nsg31
Nsg32
Nsg40
Nsg34
Nsg35
Nsg33
Nsg37
Nsg36
Nsg38
Nsg39
I01
sg41
Nsg42
Nsg43
Nsg44
Nsg45
Nsg46
Nstp91
Rp92
(dp93
g50
(dp94
sbsbtp95
Rp96
(dp97
btp98
Rp99
(dp100
btp101
Rp102
(dp103
bg10
(g11
((I1
S'ab50b0f27bb3L'
p104
I-50
I48
tp105
tp106
Rp107
(dp108
g17
I53
sbg53
g18
(g19
(S'q5'
p109
tp110
Rp111
(dp112
g24
g0
(g25
g26
(dp113
g28
Nsg72
Nsg29
Nsg30
Nsg31
Nsg32
Nsg40
Nsg34
Nsg35
Nsg33
Nsg37
Nsg36
Nsg38
Nsg39
I01
sg41
Nsg42
Nsg43
Nsg44
Nsg45
Nsg46
Nstp114
Rp115
(dp116
g50
(dp117
sbsbtp118
Rp119
(dp120
btp121
Rp122
(dp123
bg10
(g11
((I1
S'191a9fbe76c8b3L'
p124
I-54
I53
tp125
tp126
Rp127
(dp128
g17
I53
sbg18
(g9
(g69
g79
tp129
Rp130
(dp131
btp132
Rp133
(dp134
bg65
tp135
Rp136
(dp137
bg10
(g11
((I1
S'1b333333333333L'
p138
I-54
I53
tp139
tp140
Rp141
(dp142
g17
I53
sbg18
(g69
tp143
Rp144
(dp145
bg65
tp146
Rp147
(dp148
bg10
(g11
((I1
S'ab50b0f27bb3L'
p149
I-50
I48
tp150
tp151
Rp152
(dp153
g17
I53
sbg18
(g96
tp154
Rp155
(dp156
bg65
g63
(g111
tp157
Rp158
(dp159
btp160
Rp161
(dp162
btp163
Rp164
(dp165
bag10
(csympy.core.numbers
NegativeOne
p166
(I-1
tp167
Rp168
(dp169
bg9
(g10
(g11
((I0
S'183afb7e90ff97L'
p170
I-56
I53
tp171
tp172
Rp173
(dp174
g17
I53
sbg155
tp175
Rp176
(dp177
bg10
(g11
((I0
S'191a9fbe76c8b3L'
p178
I-54
I53
tp179
tp180
Rp181
(dp182
g17
I53
sbg63
(g130
tp183
Rp184
(dp185
btp186
Rp187
(dp188
bg10
(g11
((I0
S'1b333333333333L'
p189
I-54
I53
tp190
tp191
Rp192
(dp193
g17
I53
sbg63
(g69
tp194
Rp195
(dp196
btp197
Rp198
(dp199
bg10
(g11
((I0
S'ab50b0f27bb3L'
p200
I-50
I48
tp201
tp202
Rp203
(dp204
g17
I53
sbg158
g99
tp205
Rp206
(dp207
btp208
Rp209
(dp210
bg53
tp211
Rp212
(dp213
bag10
(g168
g9
(g10
(g11
((I0
S'646a7ef9db22dL'
p214
I-52
I51
tp215
tp216
Rp217
(dp218
g17
I53
sbg184
tp219
Rp220
(dp221
bg10
(g11
((I0
S'183afb7e90ff97L'
p222
I-56
I53
tp223
tp224
Rp225
(dp226
g17
I53
sbg155
tp227
Rp228
(dp229
bg10
(g11
((I0
S'156a161e4f7661L'
p230
I-55
I53
tp231
tp232
Rp233
(dp234
g17
I53
sbg158
g99
tp235
Rp236
(dp237
btp238
Rp239
(dp240
bg53
tp241
Rp242
(dp243
bag10
(g168
g9
(g228
g10
(g11
((I0
S'ab50b0f27bb3L'
p244
I-50
I48
tp245
tp246
Rp247
(dp248
g17
I53
sbg158
g99
tp249
Rp250
(dp251
btp252
Rp253
(dp254
bg53
tp255
Rp256
(dp257
bag9
(g10
(g11
((I0
S'ab50b0f27bb3L'
p258
I-50
I48
tp259
tp260
Rp261
(dp262
g17
I53
sbg65
g158
tp263
Rp264
(dp265
bg10
(g11
((I0
S'ab50b0f27bb3L'
p266
I-50
I48
tp267
tp268
Rp269
(dp270
g17
I53
sbg53
g119
g155
tp271
Rp272
(dp273
btp274
Rp275
(dp276
bacsympy.core.numbers
Zero
p277
(I0
tp278
Rp279
(dp280
bag9
(g10
(g11
((I1
S'1bf141205bc019L'
p281
I-56
I53
tp282
tp283
Rp284
(dp285
g17
I53
sbg65
tp286
Rp287
(dp288
bg10
(g11
((I0
S'191a9fbe76c8b3L'
p289
I-54
I53
tp290
tp291
Rp292
(dp293
g17
I53
sbg53
g133
tp294
Rp295
(dp296
bg10
(g11
((I0
S'1b333333333333L'
p297
I-54
I53
tp298
tp299
Rp300
(dp301
g17
I53
sbg53
g144
tp302
Rp303
(dp304
bg10
(g11
((I1
S'ab50b0f27bb3L'
p305
I-50
I48
tp306
tp307
Rp308
(dp309
g17
I53
sbg119
g65
tp310
Rp311
(dp312
bg10
(g11
((I1
S'183afb7e90ff97L'
p313
I-56
I53
tp314
tp315
Rp316
(dp317
g17
I53
sbg53
g99
tp318
Rp319
(dp320
bg10
(g11
((I0
S'ab50b0f27bb3L'
p321
I-50
I48
tp322
tp323
Rp324
(dp325
g17
I53
sbg53
g155
g158
tp326
Rp327
(dp328
btp329
Rp330
(dp331
bag10
(g168
g9
(g10
(g11
((I0
S'183afb7e90ff97L'
p332
I-56
I53
tp333
tp334
Rp335
(dp336
g17
I53
sbg155
tp337
Rp338
(dp339
bg10
(g11
((I0
S'191a9fbe76c8b3L'
p340
I-54
I53
tp341
tp342
Rp343
(dp344
g17
I53
sbg184
tp345
Rp346
(dp347
bg10
(g11
((I0
S'1b333333333333L'
p348
I-54
I53
tp349
tp350
Rp351
(dp352
g17
I53
sbg195
tp353
Rp354
(dp355
bg10
(g11
((I0
S'ab50b0f27bb3L'
p356
I-50
I48
tp357
tp358
Rp359
(dp360
g17
I53
sbg158
g99
tp361
Rp362
(dp363
btp364
Rp365
(dp366
bg65
tp367
Rp368
(dp369
bag10
(g168
g9
(g10
(g11
((I0
S'646a7ef9db22dL'
p370
I-52
I51
tp371
tp372
Rp373
(dp374
g17
I53
sbg184
tp375
Rp376
(dp377
bg10
(g11
((I0
S'183afb7e90ff97L'
p378
I-56
I53
tp379
tp380
Rp381
(dp382
g17
I53
sbg155
tp383
Rp384
(dp385
bg10
(g11
((I0
S'156a161e4f7661L'
p386
I-55
I53
tp387
tp388
Rp389
(dp390
g17
I53
sbg158
g99
tp391
Rp392
(dp393
btp394
Rp395
(dp396
bg65
tp397
Rp398
(dp399
bag10
(g168
g9
(g384
g10
(g11
((I0
S'ab50b0f27bb3L'
p400
I-50
I48
tp401
tp402
Rp403
(dp404
g17
I53
sbg158
g99
tp405
Rp406
(dp407
btp408
Rp409
(dp410
bg65
tp411
Rp412
(dp413
bag9
(g10
(g11
((I1
S'ab50b0f27bb3L'
p414
I-50
I48
tp415
tp416
Rp417
(dp418
g17
I53
sbg53
g158
tp419
Rp420
(dp421
bg10
(g11
((I0
S'ab50b0f27bb3L'
p422
I-50
I48
tp423
tp424
Rp425
(dp426
g17
I53
sbg119
g155
g65
tp427
Rp428
(dp429
btp430
Rp431
(dp432
bag279
ag279
ag9
(g10
(g11
((I0
S'183afb7e90ff97L'
p433
I-56
I53
tp434
tp435
Rp436
(dp437
g17
I53
sbg99
tp438
Rp439
(dp440
bg10
(g11
((I1
S'191a9fbe76c8b3L'
p441
I-54
I53
tp442
tp443
Rp444
(dp445
g17
I53
sbg133
tp446
Rp447
(dp448
bg10
(g11
((I1
S'1b333333333333L'
p449
I-54
I53
tp450
tp451
Rp452
(dp453
g17
I53
sbg144
tp454
Rp455
(dp456
bg10
(g11
((I1
S'ab50b0f27bb3L'
p457
I-50
I48
tp458
tp459
Rp460
(dp461
g17
I53
sbg155
g158
tp462
Rp463
(dp464
btp465
Rp466
(dp467
bag9
(g10
(g11
((I0
S'183afb7e90ff97L'
p468
I-56
I53
tp469
tp470
Rp471
(dp472
g17
I53
sbg99
tp473
Rp474
(dp475
bg10
(g11
((I1
S'646a7ef9db22dL'
p476
I-52
I51
tp477
tp478
Rp479
(dp480
g17
I53
sbg133
tp481
Rp482
(dp483
bg10
(g11
((I1
S'156a161e4f7661L'
p484
I-55
I53
tp485
tp486
Rp487
(dp488
g17
I53
sbg155
g158
tp489
Rp490
(dp491
btp492
Rp493
(dp494
bag9
(g474
g10
(g11
((I1
S'ab50b0f27bb3L'
p495
I-50
I48
tp496
tp497
Rp498
(dp499
g17
I53
sbg155
g158
tp500
Rp501
(dp502
btp503
Rp504
(dp505
bag10
(g11
((I1
S'ab50b0f27bb3L'
p506
I-50
I48
tp507
tp508
Rp509
(dp510
g17
I53
sbg119
g99
tp511
Rp512
(dp513
bag279
ag10
(csympy.core.power
Pow
p514
(g9
(csympy.core.numbers
One
p515
(I1
tp516
Rp517
(dp518
bg10
(g18
(g19
(S'q6'
p519
tp520
Rp521
(dp522
g24
g0
(g25
g26
(dp523
g28
Nsg29
Nsg30
Nsg31
Nsg32
Nsg40
Nsg34
Nsg35
Nsg33
Nsg37
Nsg36
Nsg38
Nsg39
I01
sg41
Nsg42
Nsg43
Nsg44
Nsg45
Nsg46
Nstp524
Rp525
(dp526
g50
(dp527
sbsbtp528
Rp529
(dp530
bg155
tp531
Rp532
(dp533
bg10
(g168
g9
(g10
(g168
g53
g158
tp534
Rp535
(dp536
bg10
(g119
g155
g65
tp537
Rp538
(dp539
btp540
Rp541
(dp542
bg529
tp543
Rp544
(dp545
bg10
(g168
g119
g65
tp546
Rp547
(dp548
bg10
(g53
g155
g158
tp549
Rp550
(dp551
bg10
(g65
g63
(g521
tp552
Rp553
(dp554
bg99
tp555
Rp556
(dp557
bg10
(g168
g119
g553
g99
tp558
Rp559
(dp560
btp561
Rp562
(dp563
bcsympy.core.numbers
Rational
p564
(I-1
I2
tp565
Rp566
(dp567
btp568
Rp569
(dp570
bg9
(g10
(g11
((I0
S'1L'
p571
I-2
I1
tp572
tp573
Rp574
(dp575
g17
I53
sbg9
(g10
(g9
(g10
(g65
g158
tp576
Rp577
(dp578
bg10
(g53
g119
g155
tp579
Rp580
(dp581
btp582
Rp583
(dp584
bg529
tp585
Rp586
(dp587
bg10
(g53
g119
tp588
Rp589
(dp590
bg10
(g155
g65
g158
tp591
Rp592
(dp593
bg10
(g168
g53
g553
g99
tp594
Rp595
(dp596
btp597
Rp598
(dp599
bcsympy.functions.elementary.complexes
sign
p600
(g9
(g10
(g9
(g10
(g53
g158
tp601
Rp602
(dp603
bg10
(g168
g119
g155
g65
tp604
Rp605
(dp606
btp607
Rp608
(dp609
bg553
tp610
Rp611
(dp612
bg10
(g155
g553
tp613
Rp614
(dp615
bg10
(g119
g529
g99
tp616
Rp617
(dp618
bg10
(g168
g529
g65
g99
tp619
Rp620
(dp621
btp622
Rp623
(dp624
btp625
Rp626
(dp627
btp628
Rp629
(dp630
bg10
(g11
((I0
S'1L'
p631
I-1
I1
tp632
tp633
Rp634
(dp635
g17
I53
sbg9
(g517
g10
(g529
g155
tp636
Rp637
(dp638
bg10
(g168
g9
(g10
(g168
g53
g158
tp639
Rp640
(dp641
bg10
(g119
g155
g65
tp642
Rp643
(dp644
btp645
Rp646
(dp647
bg529
tp648
Rp649
(dp650
bg10
(g168
g119
g65
tp651
Rp652
(dp653
bg10
(g53
g155
g158
tp654
Rp655
(dp656
bg10
(g65
g553
g99
tp657
Rp658
(dp659
bg10
(g168
g119
g553
g99
tp660
Rp661
(dp662
btp663
Rp664
(dp665
bcsympy.core.function
Derivative
p666
(g10
(g168
g626
tp667
Rp668
(dp669
bcsympy.core.containers
Tuple
p670
(g22
g517
tp671
Rp672
(dp673
btp674
Rp675
(dp676
btp677
Rp678
(dp679
btp680
Rp681
(dp682
btp683
Rp684
(dp685
bag10
(g569
g9
(g10
(g11
((I0
S'1L'
p686
I-2
I1
tp687
tp688
Rp689
(dp690
g17
I53
sbg9
(g10
(g529
g99
tp691
Rp692
(dp693
bg10
(g53
g158
g99
tp694
Rp695
(dp696
bg10
(g119
g155
g553
tp697
Rp698
(dp699
bg10
(g168
g155
g65
g553
tp700
Rp701
(dp702
bg10
(g168
g119
g529
g65
g99
tp703
Rp704
(dp705
btp706
Rp707
(dp708
bg626
tp709
Rp710
(dp711
bg10
(g11
((I0
S'1L'
p712
I-1
I1
tp713
tp714
Rp715
(dp716
g17
I53
sbg9
(g517
g10
(g529
g155
tp717
Rp718
(dp719
bg10
(g168
g9
(g10
(g168
g53
g158
tp720
Rp721
(dp722
bg10
(g119
g155
g65
tp723
Rp724
(dp725
btp726
Rp727
(dp728
bg529
tp729
Rp730
(dp731
bg10
(g168
g119
g65
tp732
Rp733
(dp734
bg10
(g53
g155
g158
tp735
Rp736
(dp737
bg10
(g65
g553
g99
tp738
Rp739
(dp740
bg10
(g168
g119
g553
g99
tp741
Rp742
(dp743
btp744
Rp745
(dp746
bg666
(g10
(g168
g626
tp747
Rp748
(dp749
bg670
(g69
g517
tp750
Rp751
(dp752
btp753
Rp754
(dp755
btp756
Rp757
(dp758
btp759
Rp760
(dp761
btp762
Rp763
(dp764
bag10
(g569
g9
(g10
(g11
((I0
S'1L'
p765
I-2
I1
tp766
tp767
Rp768
(dp769
g17
I53
sbg9
(g10
(g529
g99
tp770
Rp771
(dp772
bg10
(g53
g158
g99
tp773
Rp774
(dp775
bg10
(g119
g155
g553
tp776
Rp777
(dp778
bg10
(g168
g155
g65
g553
tp779
Rp780
(dp781
bg10
(g168
g119
g529
g65
g99
tp782
Rp783
(dp784
btp785
Rp786
(dp787
bg626
tp788
Rp789
(dp790
bg10
(g11
((I0
S'1L'
p791
I-1
I1
tp792
tp793
Rp794
(dp795
g17
I53
sbg9
(g517
g10
(g529
g155
tp796
Rp797
(dp798
bg10
(g168
g9
(g10
(g168
g53
g158
tp799
Rp800
(dp801
bg10
(g119
g155
g65
tp802
Rp803
(dp804
btp805
Rp806
(dp807
bg529
tp808
Rp809
(dp810
bg10
(g168
g119
g65
tp811
Rp812
(dp813
bg10
(g53
g155
g158
tp814
Rp815
(dp816
bg10
(g65
g553
g99
tp817
Rp818
(dp819
bg10
(g168
g119
g553
g99
tp820
Rp821
(dp822
btp823
Rp824
(dp825
bg666
(g10
(g168
g626
tp826
Rp827
(dp828
bg670
(g79
g517
tp829
Rp830
(dp831
btp832
Rp833
(dp834
btp835
Rp836
(dp837
btp838
Rp839
(dp840
btp841
Rp842
(dp843
bag10
(g569
g9
(g10
(g11
((I0
S'1L'
p844
I-1
I1
tp845
tp846
Rp847
(dp848
g17
I53
sbg9
(g517
g10
(g529
g155
tp849
Rp850
(dp851
bg10
(g168
g9
(g10
(g168
g53
g158
tp852
Rp853
(dp854
bg10
(g119
g155
g65
tp855
Rp856
(dp857
btp858
Rp859
(dp860
bg529
tp861
Rp862
(dp863
bg10
(g168
g119
g65
tp864
Rp865
(dp866
bg10
(g53
g155
g158
tp867
Rp868
(dp869
bg10
(g65
g553
g99
tp870
Rp871
(dp872
bg10
(g168
g119
g553
g99
tp873
Rp874
(dp875
btp876
Rp877
(dp878
bg666
(g10
(g168
g626
tp879
Rp880
(dp881
bg670
(g88
g517
tp882
Rp883
(dp884
btp885
Rp886
(dp887
btp888
Rp889
(dp890
bg10
(g11
((I1
S'1L'
p891
I-2
I1
tp892
tp893
Rp894
(dp895
g17
I53
sbg9
(g10
(g168
g529
g99
tp896
Rp897
(dp898
bg10
(g155
g65
g553
tp899
Rp900
(dp901
bg10
(g168
g53
g158
g99
tp902
Rp903
(dp904
bg10
(g168
g119
g155
g553
tp905
Rp906
(dp907
bg10
(g119
g529
g65
g99
tp908
Rp909
(dp910
btp911
Rp912
(dp913
bg626
tp914
Rp915
(dp916
btp917
Rp918
(dp919
btp920
Rp921
(dp922
bag10
(g569
g9
(g10
(g11
((I0
S'1L'
p923
I-1
I1
tp924
tp925
Rp926
(dp927
g17
I53
sbg9
(g517
g10
(g529
g155
tp928
Rp929
(dp930
bg10
(g168
g9
(g10
(g168
g53
g158
tp931
Rp932
(dp933
bg10
(g119
g155
g65
tp934
Rp935
(dp936
btp937
Rp938
(dp939
bg529
tp940
Rp941
(dp942
bg10
(g168
g119
g65
tp943
Rp944
(dp945
bg10
(g53
g155
g158
tp946
Rp947
(dp948
bg10
(g65
g553
g99
tp949
Rp950
(dp951
bg10
(g168
g119
g553
g99
tp952
Rp953
(dp954
btp955
Rp956
(dp957
bg666
(g10
(g168
g626
tp958
Rp959
(dp960
bg670
(g111
g517
tp961
Rp962
(dp963
btp964
Rp965
(dp966
btp967
Rp968
(dp969
bg10
(g11
((I1
S'1L'
p970
I-2
I1
tp971
tp972
Rp973
(dp974
g17
I53
sbg9
(g10
(g9
(g10
(g53
g119
tp975
Rp976
(dp977
bg10
(g155
g65
g158
tp978
Rp979
(dp980
btp981
Rp982
(dp983
bg529
tp984
Rp985
(dp986
bg10
(g65
g158
tp987
Rp988
(dp989
bg10
(g53
g119
g155
tp990
Rp991
(dp992
bg10
(g158
g553
g99
tp993
Rp994
(dp995
btp996
Rp997
(dp998
bg626
tp999
Rp1000
(dp1001
btp1002
Rp1003
(dp1004
btp1005
Rp1006
(dp1007
bag10
(g569
g9
(g10
(g11
((I0
S'1L'
p1008
I-1
I1
tp1009
tp1010
Rp1011
(dp1012
g17
I53
sbg9
(g517
g10
(g529
g155
tp1013
Rp1014
(dp1015
bg10
(g168
g9
(g10
(g168
g53
g158
tp1016
Rp1017
(dp1018
bg10
(g119
g155
g65
tp1019
Rp1020
(dp1021
btp1022
Rp1023
(dp1024
bg529
tp1025
Rp1026
(dp1027
bg10
(g168
g119
g65
tp1028
Rp1029
(dp1030
bg10
(g53
g155
g158
tp1031
Rp1032
(dp1033
bg10
(g65
g553
g99
tp1034
Rp1035
(dp1036
bg10
(g168
g119
g553
g99
tp1037
Rp1038
(dp1039
btp1040
Rp1041
(dp1042
bg666
(g10
(g168
g626
tp1043
Rp1044
(dp1045
bg670
(g521
g517
tp1046
Rp1047
(dp1048
btp1049
Rp1050
(dp1051
btp1052
Rp1053
(dp1054
bg10
(g11
((I1
S'1L'
p1055
I-2
I1
tp1056
tp1057
Rp1058
(dp1059
g17
I53
sbg9
(g10
(g9
(g10
(g168
g53
g158
tp1060
Rp1061
(dp1062
bg10
(g119
g155
g65
tp1063
Rp1064
(dp1065
btp1066
Rp1067
(dp1068
bg553
tp1069
Rp1070
(dp1071
bg10
(g168
g155
g553
tp1072
Rp1073
(dp1074
bg10
(g529
g65
g99
tp1075
Rp1076
(dp1077
bg10
(g168
g119
g529
g99
tp1078
Rp1079
(dp1080
btp1081
Rp1082
(dp1083
bg626
tp1084
Rp1085
(dp1086
btp1087
Rp1088
(dp1089
btp1090
Rp1091
(dp1092
bag10
(g514
(g9
(g517
g10
(g9
(g10
(g168
g53
g158
tp1093
Rp1094
(dp1095
bg10
(g119
g155
g65
tp1096
Rp1097
(dp1098
btp1099
Rp1100
(dp1101
bg529
tp1102
Rp1103
(dp1104
bg10
(g119
g65
tp1105
Rp1106
(dp1107
bg10
(g529
g155
tp1108
Rp1109
(dp1110
bg10
(g168
g53
g155
g158
tp1111
Rp1112
(dp1113
bg10
(g168
g119
g553
g99
tp1114
Rp1115
(dp1116
bg10
(g168
g65
g553
g99
tp1117
Rp1118
(dp1119
btp1120
Rp1121
(dp1122
bg566
tp1123
Rp1124
(dp1125
bg9
(g10
(g11
((I0
S'1L'
p1126
I-1
I1
tp1127
tp1128
Rp1129
(dp1130
g17
I53
sbg9
(g517
g10
(g1100
g529
tp1131
Rp1132
(dp1133
bg10
(g119
g65
tp1134
Rp1135
(dp1136
bg10
(g529
g155
tp1137
Rp1138
(dp1139
bg10
(g168
g53
g155
g158
tp1140
Rp1141
(dp1142
bg10
(g168
g119
g553
g99
tp1143
Rp1144
(dp1145
bg10
(g168
g65
g553
g99
tp1146
Rp1147
(dp1148
btp1149
Rp1150
(dp1151
bg666
(g10
(g168
g600
(g9
(g10
(g9
(g10
(g65
g158
tp1152
Rp1153
(dp1154
bg10
(g53
g119
g155
tp1155
Rp1156
(dp1157
btp1158
Rp1159
(dp1160
bg553
tp1161
Rp1162
(dp1163
bg10
(g168
g158
g99
tp1164
Rp1165
(dp1166
bg10
(g53
g529
g99
tp1167
Rp1168
(dp1169
btp1170
Rp1171
(dp1172
btp1173
Rp1174
(dp1175
btp1176
Rp1177
(dp1178
bg670
(g22
g517
tp1179
Rp1180
(dp1181
btp1182
Rp1183
(dp1184
btp1185
Rp1186
(dp1187
bg10
(g11
((I1
S'1L'
p1188
I-2
I1
tp1189
tp1190
Rp1191
(dp1192
g17
I53
sbg598
g1174
tp1193
Rp1194
(dp1195
btp1196
Rp1197
(dp1198
btp1199
Rp1200
(dp1201
bag10
(g1124
g9
(g10
(g11
((I0
S'1L'
p1202
I-2
I1
tp1203
tp1204
Rp1205
(dp1206
g17
I53
sbg9
(g10
(g529
g99
tp1207
Rp1208
(dp1209
bg10
(g119
g155
g553
tp1210
Rp1211
(dp1212
bg10
(g155
g65
g553
tp1213
Rp1214
(dp1215
bg10
(g168
g53
g158
g99
tp1216
Rp1217
(dp1218
bg10
(g119
g529
g65
g99
tp1219
Rp1220
(dp1221
btp1222
Rp1223
(dp1224
bg1174
tp1225
Rp1226
(dp1227
bg10
(g11
((I0
S'1L'
p1228
I-1
I1
tp1229
tp1230
Rp1231
(dp1232
g17
I53
sbg1150
g666
(g10
(g168
g1174
tp1233
Rp1234
(dp1235
bg670
(g69
g517
tp1236
Rp1237
(dp1238
btp1239
Rp1240
(dp1241
btp1242
Rp1243
(dp1244
btp1245
Rp1246
(dp1247
btp1248
Rp1249
(dp1250
bag10
(g1124
g9
(g10
(g11
((I0
S'1L'
p1251
I-2
I1
tp1252
tp1253
Rp1254
(dp1255
g17
I53
sbg1223
g1174
tp1256
Rp1257
(dp1258
bg10
(g11
((I0
S'1L'
p1259
I-1
I1
tp1260
tp1261
Rp1262
(dp1263
g17
I53
sbg1150
g666
(g10
(g168
g1174
tp1264
Rp1265
(dp1266
bg670
(g79
g517
tp1267
Rp1268
(dp1269
btp1270
Rp1271
(dp1272
btp1273
Rp1274
(dp1275
btp1276
Rp1277
(dp1278
btp1279
Rp1280
(dp1281
bag10
(g1124
g9
(g10
(g11
((I0
S'1L'
p1282
I-2
I1
tp1283
tp1284
Rp1285
(dp1286
g17
I53
sbg1223
g1174
tp1287
Rp1288
(dp1289
bg10
(g11
((I0
S'1L'
p1290
I-1
I1
tp1291
tp1292
Rp1293
(dp1294
g17
I53
sbg9
(g517
g10
(g9
(g10
(g168
g53
g158
tp1295
Rp1296
(dp1297
bg10
(g119
g155
g65
tp1298
Rp1299
(dp1300
btp1301
Rp1302
(dp1303
bg529
tp1304
Rp1305
(dp1306
bg10
(g119
g65
tp1307
Rp1308
(dp1309
bg10
(g529
g155
tp1310
Rp1311
(dp1312
bg10
(g168
g53
g155
g158
tp1313
Rp1314
(dp1315
bg10
(g168
g119
g553
g99
tp1316
Rp1317
(dp1318
bg10
(g168
g65
g553
g99
tp1319
Rp1320
(dp1321
btp1322
Rp1323
(dp1324
bg666
(g10
(g168
g1174
tp1325
Rp1326
(dp1327
bg670
(g88
g517
tp1328
Rp1329
(dp1330
btp1331
Rp1332
(dp1333
btp1334
Rp1335
(dp1336
btp1337
Rp1338
(dp1339
btp1340
Rp1341
(dp1342
bag10
(g1124
g9
(g10
(g11
((I0
S'1L'
p1343
I-2
I1
tp1344
tp1345
Rp1346
(dp1347
g17
I53
sbg9
(g10
(g9
(g10
(g53
g119
tp1348
Rp1349
(dp1350
bg10
(g155
g65
g158
tp1351
Rp1352
(dp1353
btp1354
Rp1355
(dp1356
bg529
tp1357
Rp1358
(dp1359
bg10
(g65
g158
tp1360
Rp1361
(dp1362
bg10
(g53
g119
g155
tp1363
Rp1364
(dp1365
bg10
(g168
g158
g553
g99
tp1366
Rp1367
(dp1368
btp1369
Rp1370
(dp1371
bg1174
tp1372
Rp1373
(dp1374
bg10
(g11
((I0
S'1L'
p1375
I-1
I1
tp1376
tp1377
Rp1378
(dp1379
g17
I53
sbg1150
g666
(g10
(g168
g1174
tp1380
Rp1381
(dp1382
bg670
(g111
g517
tp1383
Rp1384
(dp1385
btp1386
Rp1387
(dp1388
btp1389
Rp1390
(dp1391
btp1392
Rp1393
(dp1394
btp1395
Rp1396
(dp1397
bag10
(g1124
g9
(g10
(g11
((I0
S'1L'
p1398
I-1
I1
tp1399
tp1400
Rp1401
(dp1402
g17
I53
sbg1150
g666
(g10
(g168
g1174
tp1403
Rp1404
(dp1405
bg670
(g521
g517
tp1406
Rp1407
(dp1408
btp1409
Rp1410
(dp1411
btp1412
Rp1413
(dp1414
bg10
(g11
((I1
S'1L'
p1415
I-2
I1
tp1416
tp1417
Rp1418
(dp1419
g17
I53
sbg9
(g10
(g9
(g10
(g53
g158
tp1420
Rp1421
(dp1422
bg10
(g168
g119
g155
g65
tp1423
Rp1424
(dp1425
btp1426
Rp1427
(dp1428
bg553
tp1429
Rp1430
(dp1431
bg10
(g168
g155
g553
tp1432
Rp1433
(dp1434
bg10
(g168
g119
g529
g99
tp1435
Rp1436
(dp1437
bg10
(g168
g529
g65
g99
tp1438
Rp1439
(dp1440
btp1441
Rp1442
(dp1443
bg1174
tp1444
Rp1445
(dp1446
btp1447
Rp1448
(dp1449
btp1450
Rp1451
(dp1452
bag10
(g514
(g9
(g517
g10
(g9
(g10
(g53
g158
tp1453
Rp1454
(dp1455
bg10
(g168
g119
g155
g65
tp1456
Rp1457
(dp1458
btp1459
Rp1460
(dp1461
bg529
tp1462
Rp1463
(dp1464
bg1106
g10
(g168
g529
g155
tp1465
Rp1466
(dp1467
bg10
(g119
g553
g99
tp1468
Rp1469
(dp1470
bg10
(g65
g553
g99
tp1471
Rp1472
(dp1473
bg10
(g168
g53
g155
g158
tp1474
Rp1475
(dp1476
btp1477
Rp1478
(dp1479
bg566
tp1480
Rp1481
(dp1482
bg9
(g10
(g11
((I0
S'1L'
p1483
I-2
I1
tp1484
tp1485
Rp1486
(dp1487
g17
I53
sbg9
(g10
(g9
(g10
(g65
g158
tp1488
Rp1489
(dp1490
bg10
(g53
g119
g155
tp1491
Rp1492
(dp1493
btp1494
Rp1495
(dp1496
bg529
tp1497
Rp1498
(dp1499
bg10
(g168
g53
g119
tp1500
Rp1501
(dp1502
bg10
(g168
g53
g553
g99
tp1503
Rp1504
(dp1505
bg10
(g168
g155
g65
g158
tp1506
Rp1507
(dp1508
btp1509
Rp1510
(dp1511
bg600
(g9
(g10
(g1495
g529
tp1512
Rp1513
(dp1514
bg10
(g168
g53
g119
tp1515
Rp1516
(dp1517
bg10
(g168
g53
g553
g99
tp1518
Rp1519
(dp1520
bg10
(g168
g155
g65
g158
tp1521
Rp1522
(dp1523
btp1524
Rp1525
(dp1526
btp1527
Rp1528
(dp1529
btp1530
Rp1531
(dp1532
bg10
(g11
((I0
S'1L'
p1533
I-1
I1
tp1534
tp1535
Rp1536
(dp1537
g17
I53
sbg9
(g517
g10
(g9
(g10
(g53
g158
tp1538
Rp1539
(dp1540
bg10
(g168
g119
g155
g65
tp1541
Rp1542
(dp1543
btp1544
Rp1545
(dp1546
bg529
tp1547
Rp1548
(dp1549
bg10
(g119
g65
tp1550
Rp1551
(dp1552
bg10
(g168
g529
g155
tp1553
Rp1554
(dp1555
bg10
(g119
g553
g99
tp1556
Rp1557
(dp1558
bg10
(g65
g553
g99
tp1559
Rp1560
(dp1561
bg10
(g168
g53
g155
g158
tp1562
Rp1563
(dp1564
btp1565
Rp1566
(dp1567
bg666
(g10
(g168
g1528
tp1568
Rp1569
(dp1570
bg670
(g22
g517
tp1571
Rp1572
(dp1573
btp1574
Rp1575
(dp1576
btp1577
Rp1578
(dp1579
btp1580
Rp1581
(dp1582
btp1583
Rp1584
(dp1585
bag10
(g1481
g9
(g10
(g11
((I0
S'1L'
p1586
I-1
I1
tp1587
tp1588
Rp1589
(dp1590
g17
I53
sbg9
(g517
g10
(g1545
g529
tp1591
Rp1592
(dp1593
bg10
(g119
g65
tp1594
Rp1595
(dp1596
bg10
(g168
g529
g155
tp1597
Rp1598
(dp1599
bg10
(g119
g553
g99
tp1600
Rp1601
(dp1602
bg10
(g65
g553
g99
tp1603
Rp1604
(dp1605
bg10
(g168
g53
g155
g158
tp1606
Rp1607
(dp1608
btp1609
Rp1610
(dp1611
bg666
(g10
(g168
g1528
tp1612
Rp1613
(dp1614
bg670
(g69
g517
tp1615
Rp1616
(dp1617
btp1618
Rp1619
(dp1620
btp1621
Rp1622
(dp1623
bg10
(g11
((I1
S'1L'
p1624
I-2
I1
tp1625
tp1626
Rp1627
(dp1628
g17
I53
sbg9
(g10
(g529
g99
tp1629
Rp1630
(dp1631
bg10
(g53
g158
g99
tp1632
Rp1633
(dp1634
bg10
(g119
g155
g553
tp1635
Rp1636
(dp1637
bg10
(g155
g65
g553
tp1638
Rp1639
(dp1640
bg10
(g119
g529
g65
g99
tp1641
Rp1642
(dp1643
btp1644
Rp1645
(dp1646
bg1528
tp1647
Rp1648
(dp1649
btp1650
Rp1651
(dp1652
btp1653
Rp1654
(dp1655
bag10
(g1481
g9
(g10
(g11
((I0
S'1L'
p1656
I-1
I1
tp1657
tp1658
Rp1659
(dp1660
g17
I53
sbg1610
g666
(g10
(g168
g1528
tp1661
Rp1662
(dp1663
bg670
(g79
g517
tp1664
Rp1665
(dp1666
btp1667
Rp1668
(dp1669
btp1670
Rp1671
(dp1672
bg10
(g11
((I1
S'1L'
p1673
I-2
I1
tp1674
tp1675
Rp1676
(dp1677
g17
I53
sbg1645
g1528
tp1678
Rp1679
(dp1680
btp1681
Rp1682
(dp1683
btp1684
Rp1685
(dp1686
bag10
(g1481
g9
(g10
(g11
((I0
S'1L'
p1687
I-1
I1
tp1688
tp1689
Rp1690
(dp1691
g17
I53
sbg9
(g517
g10
(g9
(g10
(g53
g158
tp1692
Rp1693
(dp1694
bg10
(g168
g119
g155
g65
tp1695
Rp1696
(dp1697
btp1698
Rp1699
(dp1700
bg529
tp1701
Rp1702
(dp1703
bg10
(g119
g65
tp1704
Rp1705
(dp1706
bg10
(g168
g529
g155
tp1707
Rp1708
(dp1709
bg10
(g119
g553
g99
tp1710
Rp1711
(dp1712
bg10
(g65
g553
g99
tp1713
Rp1714
(dp1715
bg10
(g168
g53
g155
g158
tp1716
Rp1717
(dp1718
btp1719
Rp1720
(dp1721
bg666
(g10
(g168
g1528
tp1722
Rp1723
(dp1724
bg670
(g88
g517
tp1725
Rp1726
(dp1727
btp1728
Rp1729
(dp1730
btp1731
Rp1732
(dp1733
bg10
(g11
((I1
S'1L'
p1734
I-2
I1
tp1735
tp1736
Rp1737
(dp1738
g17
I53
sbg1645
g1528
tp1739
Rp1740
(dp1741
btp1742
Rp1743
(dp1744
btp1745
Rp1746
(dp1747
bag10
(g1481
g9
(g10
(g11
((I0
S'1L'
p1748
I-2
I1
tp1749
tp1750
Rp1751
(dp1752
g17
I53
sbg9
(g10
(g65
g158
tp1753
Rp1754
(dp1755
bg10
(g168
g9
(g10
(g53
g119
tp1756
Rp1757
(dp1758
bg10
(g155
g65
g158
tp1759
Rp1760
(dp1761
btp1762
Rp1763
(dp1764
bg529
tp1765
Rp1766
(dp1767
bg10
(g53
g119
g155
tp1768
Rp1769
(dp1770
bg10
(g158
g553
g99
tp1771
Rp1772
(dp1773
btp1774
Rp1775
(dp1776
bg1528
tp1777
Rp1778
(dp1779
bg10
(g11
((I0
S'1L'
p1780
I-1
I1
tp1781
tp1782
Rp1783
(dp1784
g17
I53
sbg9
(g517
g10
(g9
(g10
(g53
g158
tp1785
Rp1786
(dp1787
bg10
(g168
g119
g155
g65
tp1788
Rp1789
(dp1790
btp1791
Rp1792
(dp1793
bg529
tp1794
Rp1795
(dp1796
bg10
(g119
g65
tp1797
Rp1798
(dp1799
bg10
(g168
g529
g155
tp1800
Rp1801
(dp1802
bg10
(g119
g553
g99
tp1803
Rp1804
(dp1805
bg10
(g65
g553
g99
tp1806
Rp1807
(dp1808
bg10
(g168
g53
g155
g158
tp1809
Rp1810
(dp1811
btp1812
Rp1813
(dp1814
bg666
(g10
(g168
g1528
tp1815
Rp1816
(dp1817
bg670
(g111
g517
tp1818
Rp1819
(dp1820
btp1821
Rp1822
(dp1823
btp1824
Rp1825
(dp1826
btp1827
Rp1828
(dp1829
btp1830
Rp1831
(dp1832
bag10
(g1481
g9
(g10
(g11
((I0
S'1L'
p1833
I-1
I1
tp1834
tp1835
Rp1836
(dp1837
g17
I53
sbg9
(g517
g10
(g9
(g1454
g10
(g168
g119
g155
g65
tp1838
Rp1839
(dp1840
btp1841
Rp1842
(dp1843
bg529
tp1844
Rp1845
(dp1846
bg1106
g10
(g168
g529
g155
tp1847
Rp1848
(dp1849
bg10
(g119
g553
g99
tp1850
Rp1851
(dp1852
bg10
(g65
g553
g99
tp1853
Rp1854
(dp1855
bg10
(g168
g53
g155
g158
tp1856
Rp1857
(dp1858
btp1859
Rp1860
(dp1861
bg666
(g10
(g168
g1528
tp1862
Rp1863
(dp1864
bg670
(g521
g517
tp1865
Rp1866
(dp1867
btp1868
Rp1869
(dp1870
btp1871
Rp1872
(dp1873
bg10
(g11
((I1
S'1L'
p1874
I-2
I1
tp1875
tp1876
Rp1877
(dp1878
g17
I53
sbg9
(g10
(g1067
g553
tp1879
Rp1880
(dp1881
bg10
(g155
g553
tp1882
Rp1883
(dp1884
bg10
(g119
g529
g99
tp1885
Rp1886
(dp1887
bg10
(g529
g65
g99
tp1888
Rp1889
(dp1890
btp1891
Rp1892
(dp1893
bg1528
tp1894
Rp1895
(dp1896
btp1897
Rp1898
(dp1899
btp1900
Rp1901
(dp1902
bag10
(g11
((I0
S'1L'
p1903
I-2
I1
tp1904
tp1905
Rp1906
(dp1907
g17
I53
sbg514
(g9
(g517
g10
(g9
(g10
(g168
g53
g158
tp1908
Rp1909
(dp1910
bg10
(g119
g155
g65
tp1911
Rp1912
(dp1913
btp1914
Rp1915
(dp1916
bg529
tp1917
Rp1918
(dp1919
bg10
(g168
g119
g65
tp1920
Rp1921
(dp1922
bg10
(g168
g529
g155
tp1923
Rp1924
(dp1925
bg10
(g53
g155
g158
tp1926
Rp1927
(dp1928
bg10
(g119
g553
g99
tp1929
Rp1930
(dp1931
bg10
(g168
g65
g553
g99
tp1932
Rp1933
(dp1934
btp1935
Rp1936
(dp1937
bg566
tp1938
Rp1939
(dp1940
bg9
(g10
(g9
(g10
(g65
g158
tp1941
Rp1942
(dp1943
bg10
(g53
g119
g155
tp1944
Rp1945
(dp1946
btp1947
Rp1948
(dp1949
bg529
tp1950
Rp1951
(dp1952
bg10
(g168
g53
g119
tp1953
Rp1954
(dp1955
bg10
(g168
g53
g553
g99
tp1956
Rp1957
(dp1958
bg10
(g168
g155
g65
g158
tp1959
Rp1960
(dp1961
btp1962
Rp1963
(dp1964
btp1965
Rp1966
(dp1967
bag10
(g11
((I0
S'1L'
p1968
I-2
I1
tp1969
tp1970
Rp1971
(dp1972
g17
I53
sbg1939
g9
(g10
(g529
g99
tp1973
Rp1974
(dp1975
bg10
(g119
g155
g553
tp1976
Rp1977
(dp1978
bg10
(g168
g53
g158
g99
tp1979
Rp1980
(dp1981
bg10
(g168
g155
g65
g553
tp1982
Rp1983
(dp1984
bg10
(g168
g119
g529
g65
g99
tp1985
Rp1986
(dp1987
btp1988
Rp1989
(dp1990
btp1991
Rp1992
(dp1993
bag10
(g11
((I0
S'1L'
p1994
I-2
I1
tp1995
tp1996
Rp1997
(dp1998
g17
I53
sbg1939
g9
(g10
(g529
g99
tp1999
Rp2000
(dp2001
bg10
(g119
g155
g553
tp2002
Rp2003
(dp2004
bg10
(g168
g53
g158
g99
tp2005
Rp2006
(dp2007
bg10
(g168
g155
g65
g553
tp2008
Rp2009
(dp2010
bg10
(g168
g119
g529
g65
g99
tp2011
Rp2012
(dp2013
btp2014
Rp2015
(dp2016
btp2017
Rp2018
(dp2019
bag10
(g11
((I0
S'1L'
p2020
I-2
I1
tp2021
tp2022
Rp2023
(dp2024
g17
I53
sbg1939
g9
(g10
(g529
g99
tp2025
Rp2026
(dp2027
bg10
(g119
g155
g553
tp2028
Rp2029
(dp2030
bg10
(g168
g53
g158
g99
tp2031
Rp2032
(dp2033
bg10
(g168
g155
g65
g553
tp2034
Rp2035
(dp2036
bg10
(g168
g119
g529
g65
g99
tp2037
Rp2038
(dp2039
btp2040
Rp2041
(dp2042
btp2043
Rp2044
(dp2045
bag10
(g11
((I0
S'1L'
p2046
I-2
I1
tp2047
tp2048
Rp2049
(dp2050
g17
I53
sbg1939
g9
(g10
(g65
g158
tp2051
Rp2052
(dp2053
bg10
(g168
g9
(g10
(g53
g119
tp2054
Rp2055
(dp2056
bg10
(g155
g65
g158
tp2057
Rp2058
(dp2059
btp2060
Rp2061
(dp2062
bg529
tp2063
Rp2064
(dp2065
bg10
(g53
g119
g155
tp2066
Rp2067
(dp2068
bg10
(g168
g158
g553
g99
tp2069
Rp2070
(dp2071
btp2072
Rp2073
(dp2074
btp2075
Rp2076
(dp2077
bag10
(g11
((I0
S'1L'
p2078
I-2
I1
tp2079
tp2080
Rp2081
(dp2082
g17
I53
sbg1939
g9
(g10
(g155
g553
tp2083
Rp2084
(dp2085
bg10
(g168
g1067
g553
tp2086
Rp2087
(dp2088
bg10
(g119
g529
g99
tp2089
Rp2090
(dp2091
bg10
(g168
g529
g65
g99
tp2092
Rp2093
(dp2094
btp2095
Rp2096
(dp2097
btp2098
Rp2099
(dp2100
basS'cols'
p2101
I6
sb.